ARM GAS  C:\Users\vboxuser\AppData\Local\Temp\cct5XUj7.s 			page 1


   1              		.syntax unified
   2              		.cpu cortex-m3
   3              		.fpu softvfp
   4              		.eabi_attribute 20, 1
   5              		.eabi_attribute 21, 1
   6              		.eabi_attribute 23, 3
   7              		.eabi_attribute 24, 1
   8              		.eabi_attribute 25, 1
   9              		.eabi_attribute 26, 1
  10              		.eabi_attribute 30, 1
  11              		.eabi_attribute 34, 1
  12              		.eabi_attribute 18, 4
  13              		.thumb
  14              		.syntax unified
  15              		.file	"sp_common.c"
  16              		.text
  17              	.Ltext0:
  18              		.cfi_sections	.debug_frame
  19              		.section	.text.RTE_timertick_sp_common_tick,"ax",%progbits
  20              		.align	2
  21              		.global	RTE_timertick_sp_common_tick
  22              		.thumb
  23              		.thumb_func
  24              		.type	RTE_timertick_sp_common_tick, %function
  25              	RTE_timertick_sp_common_tick:
  26              	.LFB133:
  27              		.file 1 "bsw\\rte\\sp_common.c"
   1:bsw\rte/sp_common.c **** /*
   2:bsw\rte/sp_common.c ****  * Filename: sp_common.c
   3:bsw\rte/sp_common.c ****  *
   4:bsw\rte/sp_common.c ****  * Author: Autogenerated by H-DA RTE Generator, (c) Prof. Fromm
   5:bsw\rte/sp_common.c ****  *
   6:bsw\rte/sp_common.c ****  * description: Common PSOC Signal Pool
   7:bsw\rte/sp_common.c ****  * endaddr: ADR_SP_COMMON_END
   8:bsw\rte/sp_common.c ****  * name: sp_common
   9:bsw\rte/sp_common.c ****  * shortname: common
  10:bsw\rte/sp_common.c ****  * startaddr: ADR_SP_COMMON_START
  11:bsw\rte/sp_common.c ****  *
  12:bsw\rte/sp_common.c ****  */
  13:bsw\rte/sp_common.c **** 
  14:bsw\rte/sp_common.c **** #include "project.h"
  15:bsw\rte/sp_common.c **** #include "global.h"
  16:bsw\rte/sp_common.c **** #include "rte.h"
  17:bsw\rte/sp_common.c **** #include "rte_types.h"
  18:bsw\rte/sp_common.c **** #include "sp_common.h"
  19:bsw\rte/sp_common.c **** 
  20:bsw\rte/sp_common.c **** 
  21:bsw\rte/sp_common.c **** 
  22:bsw\rte/sp_common.c **** /* USER CODE START SP_COMMON_INCLUDE */
  23:bsw\rte/sp_common.c **** 
  24:bsw\rte/sp_common.c **** /* USER CODE END SP_COMMON_INCLUDE */
  25:bsw\rte/sp_common.c **** 
  26:bsw\rte/sp_common.c **** #include "sc_event.h"
  27:bsw\rte/sp_common.c **** #include "sc_event_type.h"
  28:bsw\rte/sp_common.c **** #include "sc_clock.h"
  29:bsw\rte/sp_common.c **** #include "sc_clock_type.h"
  30:bsw\rte/sp_common.c **** #include "sc_clock.h"
ARM GAS  C:\Users\vboxuser\AppData\Local\Temp\cct5XUj7.s 			page 2


  31:bsw\rte/sp_common.c **** #include "sc_clock_type.h"
  32:bsw\rte/sp_common.c **** 
  33:bsw\rte/sp_common.c **** 
  34:bsw\rte/sp_common.c **** 
  35:bsw\rte/sp_common.c **** /* signal configuration */
  36:bsw\rte/sp_common.c **** /*
  37:bsw\rte/sp_common.c ****  * description: An Event Signal for controlling state machine
  38:bsw\rte/sp_common.c ****  * indriver: 0
  39:bsw\rte/sp_common.c ****  * name: so_event
  40:bsw\rte/sp_common.c ****  * onDataError: 0
  41:bsw\rte/sp_common.c ****  * onDataUpdate: ev_event_onData
  42:bsw\rte/sp_common.c ****  * outdriver: 0
  43:bsw\rte/sp_common.c ****  * resource: None
  44:bsw\rte/sp_common.c ****  * shortname: event
  45:bsw\rte/sp_common.c ****  * signalclass: sc_event
  46:bsw\rte/sp_common.c ****  * signalpool: sp_common
  47:bsw\rte/sp_common.c ****  */
  48:bsw\rte/sp_common.c **** 
  49:bsw\rte/sp_common.c **** 
  50:bsw\rte/sp_common.c **** /* The following array contains the receiving tasks for onUpdate signal events */
  51:bsw\rte/sp_common.c **** const TaskTypeArray so_event_updTasks = { tsk_control };
  52:bsw\rte/sp_common.c ****  
  53:bsw\rte/sp_common.c **** 
  54:bsw\rte/sp_common.c **** static const SC_EVENT_cfg_t SO_EVENT_cfg = 
  55:bsw\rte/sp_common.c **** {
  56:bsw\rte/sp_common.c ****    /* indriver           */  0,
  57:bsw\rte/sp_common.c ****    /* outdriver          */  0,
  58:bsw\rte/sp_common.c **** 
  59:bsw\rte/sp_common.c ****    /* onUpdate           */  ev_event_onData,
  60:bsw\rte/sp_common.c ****    /* onError            */  0,
  61:bsw\rte/sp_common.c ****    /* taskCount onUpdate */  1,
  62:bsw\rte/sp_common.c ****    /* task list onUpdate */  &so_event_updTasks,
  63:bsw\rte/sp_common.c ****    /* taskCount onError  */  0,
  64:bsw\rte/sp_common.c ****    /* task list onError  */  NULL,
  65:bsw\rte/sp_common.c **** 
  66:bsw\rte/sp_common.c ****    /* resource active    */  FALSE,
  67:bsw\rte/sp_common.c ****    /* resource           */  0,
  68:bsw\rte/sp_common.c ****    
  69:bsw\rte/sp_common.c **** }; /* configuration so_event */
  70:bsw\rte/sp_common.c **** 
  71:bsw\rte/sp_common.c **** 
  72:bsw\rte/sp_common.c **** /* signal data */
  73:bsw\rte/sp_common.c **** 
  74:bsw\rte/sp_common.c **** SC_EVENT_t SO_EVENT_signal= 
  75:bsw\rte/sp_common.c **** {
  76:bsw\rte/sp_common.c ****    /* init value    */  SC_EVENT_INIT_DATA,
  77:bsw\rte/sp_common.c ****    /* status        */  RTE_SIGNALSTATUS_STARTUP,
  78:bsw\rte/sp_common.c ****    /* age           */  0,
  79:bsw\rte/sp_common.c ****    /* cfg           */  &SO_EVENT_cfg,
  80:bsw\rte/sp_common.c **** }; /* data so_event */
  81:bsw\rte/sp_common.c **** 
  82:bsw\rte/sp_common.c **** /* signal configuration */
  83:bsw\rte/sp_common.c **** /*
  84:bsw\rte/sp_common.c ****  * description: A Signal for our Electronic Clock
  85:bsw\rte/sp_common.c ****  * indriver: 0
  86:bsw\rte/sp_common.c ****  * name: so_clock
  87:bsw\rte/sp_common.c ****  * onDataError: 0
ARM GAS  C:\Users\vboxuser\AppData\Local\Temp\cct5XUj7.s 			page 3


  88:bsw\rte/sp_common.c ****  * onDataUpdate: 0
  89:bsw\rte/sp_common.c ****  * outdriver: 0
  90:bsw\rte/sp_common.c ****  * resource: res_hmi
  91:bsw\rte/sp_common.c ****  * shortname: clock
  92:bsw\rte/sp_common.c ****  * signalclass: sc_clock
  93:bsw\rte/sp_common.c ****  * signalpool: sp_common
  94:bsw\rte/sp_common.c ****  */
  95:bsw\rte/sp_common.c **** 
  96:bsw\rte/sp_common.c ****  
  97:bsw\rte/sp_common.c **** 
  98:bsw\rte/sp_common.c **** static const SC_CLOCK_cfg_t SO_CLOCK_cfg = 
  99:bsw\rte/sp_common.c **** {
 100:bsw\rte/sp_common.c ****    /* indriver           */  0,
 101:bsw\rte/sp_common.c ****    /* outdriver          */  0,
 102:bsw\rte/sp_common.c **** 
 103:bsw\rte/sp_common.c ****    /* onUpdate           */  0,
 104:bsw\rte/sp_common.c ****    /* onError            */  0,
 105:bsw\rte/sp_common.c ****    /* taskCount onUpdate */  0,
 106:bsw\rte/sp_common.c ****    /* task list onUpdate */  NULL,
 107:bsw\rte/sp_common.c ****    /* taskCount onError  */  0,
 108:bsw\rte/sp_common.c ****    /* task list onError  */  NULL,
 109:bsw\rte/sp_common.c **** 
 110:bsw\rte/sp_common.c ****    /* resource active    */  TRUE,
 111:bsw\rte/sp_common.c ****    /* resource           */  res_hmi,
 112:bsw\rte/sp_common.c ****    
 113:bsw\rte/sp_common.c **** }; /* configuration so_clock */
 114:bsw\rte/sp_common.c **** 
 115:bsw\rte/sp_common.c **** 
 116:bsw\rte/sp_common.c **** /* signal data */
 117:bsw\rte/sp_common.c **** 
 118:bsw\rte/sp_common.c **** SC_CLOCK_t SO_CLOCK_signal= 
 119:bsw\rte/sp_common.c **** {
 120:bsw\rte/sp_common.c ****    /* init value    */  SC_CLOCK_INIT_DATA,
 121:bsw\rte/sp_common.c ****    /* status        */  RTE_SIGNALSTATUS_STARTUP,
 122:bsw\rte/sp_common.c ****    /* age           */  0,
 123:bsw\rte/sp_common.c ****    /* cfg           */  &SO_CLOCK_cfg,
 124:bsw\rte/sp_common.c **** }; /* data so_clock */
 125:bsw\rte/sp_common.c **** 
 126:bsw\rte/sp_common.c **** /* signal configuration */
 127:bsw\rte/sp_common.c **** /*
 128:bsw\rte/sp_common.c ****  * description: Displaying to TFT
 129:bsw\rte/sp_common.c ****  * indriver: 0
 130:bsw\rte/sp_common.c ****  * name: so_display
 131:bsw\rte/sp_common.c ****  * onDataError: 0
 132:bsw\rte/sp_common.c ****  * onDataUpdate: 0
 133:bsw\rte/sp_common.c ****  * outdriver: default
 134:bsw\rte/sp_common.c ****  * resource: res_hmi
 135:bsw\rte/sp_common.c ****  * shortname: display
 136:bsw\rte/sp_common.c ****  * signalclass: sc_clock
 137:bsw\rte/sp_common.c ****  * signalpool: sp_common
 138:bsw\rte/sp_common.c ****  */
 139:bsw\rte/sp_common.c **** 
 140:bsw\rte/sp_common.c ****  
 141:bsw\rte/sp_common.c **** 
 142:bsw\rte/sp_common.c **** static const SC_CLOCK_cfg_t SO_DISPLAY_cfg = 
 143:bsw\rte/sp_common.c **** {
 144:bsw\rte/sp_common.c ****    /* indriver           */  0,
ARM GAS  C:\Users\vboxuser\AppData\Local\Temp\cct5XUj7.s 			page 4


 145:bsw\rte/sp_common.c ****    /* outdriver          */  SC_CLOCK_driverOut,
 146:bsw\rte/sp_common.c **** 
 147:bsw\rte/sp_common.c ****    /* onUpdate           */  0,
 148:bsw\rte/sp_common.c ****    /* onError            */  0,
 149:bsw\rte/sp_common.c ****    /* taskCount onUpdate */  0,
 150:bsw\rte/sp_common.c ****    /* task list onUpdate */  NULL,
 151:bsw\rte/sp_common.c ****    /* taskCount onError  */  0,
 152:bsw\rte/sp_common.c ****    /* task list onError  */  NULL,
 153:bsw\rte/sp_common.c **** 
 154:bsw\rte/sp_common.c ****    /* resource active    */  TRUE,
 155:bsw\rte/sp_common.c ****    /* resource           */  res_hmi,
 156:bsw\rte/sp_common.c ****    
 157:bsw\rte/sp_common.c **** }; /* configuration so_display */
 158:bsw\rte/sp_common.c **** 
 159:bsw\rte/sp_common.c **** 
 160:bsw\rte/sp_common.c **** /* signal data */
 161:bsw\rte/sp_common.c **** 
 162:bsw\rte/sp_common.c **** SC_CLOCK_t SO_DISPLAY_signal= 
 163:bsw\rte/sp_common.c **** {
 164:bsw\rte/sp_common.c ****    /* init value    */  SC_CLOCK_INIT_DATA,
 165:bsw\rte/sp_common.c ****    /* status        */  RTE_SIGNALSTATUS_STARTUP,
 166:bsw\rte/sp_common.c ****    /* age           */  0,
 167:bsw\rte/sp_common.c ****    /* cfg           */  &SO_DISPLAY_cfg,
 168:bsw\rte/sp_common.c **** }; /* data so_display */
 169:bsw\rte/sp_common.c **** 
 170:bsw\rte/sp_common.c **** 
 171:bsw\rte/sp_common.c **** 
 172:bsw\rte/sp_common.c **** /*
 173:bsw\rte/sp_common.c ****  * Increments the age of the signals in this pool 
 174:bsw\rte/sp_common.c ****  */
 175:bsw\rte/sp_common.c **** void RTE_timertick_sp_common_tick(uint32_t tick){
  28              		.loc 1 175 0
  29              		.cfi_startproc
  30              		@ args = 0, pretend = 0, frame = 0
  31              		@ frame_needed = 0, uses_anonymous_args = 0
  32              		@ link register save eliminated.
  33              	.LVL0:
  34              	.LBB14:
  35              	.LBB15:
  36              		.file 2 "bsw\\rte\\sc_event.h"
   1:bsw\rte/sc_event.h **** 
   2:bsw\rte/sc_event.h **** 
   3:bsw\rte/sc_event.h **** /**
   4:bsw\rte/sc_event.h ****  *  file    SC_EVENT_signal.h
   5:bsw\rte/sc_event.h ****  *
   6:bsw\rte/sc_event.h ****  *  brief   signal base class for signal sc_event
   7:bsw\rte/sc_event.h ****  *
   8:bsw\rte/sc_event.h ****  *  author  Autogenerated, Peter Fromm       <peter.fromm@h-da.de>
   9:bsw\rte/sc_event.h ****  *
  10:bsw\rte/sc_event.h ****  * description: Event signal for controlling our state machine
  11:bsw\rte/sc_event.h ****  * name: sc_event
  12:bsw\rte/sc_event.h ****  * shortname: event
  13:bsw\rte/sc_event.h ****  *
  14:bsw\rte/sc_event.h ****  */
  15:bsw\rte/sc_event.h **** 
  16:bsw\rte/sc_event.h **** 
  17:bsw\rte/sc_event.h **** 
ARM GAS  C:\Users\vboxuser\AppData\Local\Temp\cct5XUj7.s 			page 5


  18:bsw\rte/sc_event.h **** #ifndef SC_EVENT_SIGNAL_H_INCLUDED
  19:bsw\rte/sc_event.h **** #define SC_EVENT_SIGNAL_H_INCLUDED
  20:bsw\rte/sc_event.h **** 
  21:bsw\rte/sc_event.h **** /*================================================[ public includes  ]=============================
  22:bsw\rte/sc_event.h **** #include "global.h"
  23:bsw\rte/sc_event.h **** #include "project.h"
  24:bsw\rte/sc_event.h **** #include "rte.h"
  25:bsw\rte/sc_event.h **** #include "rte_types.h"
  26:bsw\rte/sc_event.h **** 
  27:bsw\rte/sc_event.h **** #include "sc_event_type.h"
  28:bsw\rte/sc_event.h **** 
  29:bsw\rte/sc_event.h **** 
  30:bsw\rte/sc_event.h **** /**************************************************************************************************
  31:bsw\rte/sc_event.h **** /* The driver API block																						*/
  32:bsw\rte/sc_event.h **** /**************************************************************************************************
  33:bsw\rte/sc_event.h ****                                                                                                    
  34:bsw\rte/sc_event.h **** /**
  35:bsw\rte/sc_event.h ****  *  Definition of function types for driver interfaces.
  36:bsw\rte/sc_event.h ****  *  I-Port
  37:bsw\rte/sc_event.h ****  */
  38:bsw\rte/sc_event.h **** typedef RC_t (*SC_EVENT_driverIn_t)(SC_EVENT_data_t * const);
  39:bsw\rte/sc_event.h **** 
  40:bsw\rte/sc_event.h **** /**
  41:bsw\rte/sc_event.h ****  *  Definition of function types for driver interfaces.
  42:bsw\rte/sc_event.h ****  *  O-Port
  43:bsw\rte/sc_event.h ****  */
  44:bsw\rte/sc_event.h **** typedef RC_t (*SC_EVENT_driverOut_t)( const SC_EVENT_data_t * const);
  45:bsw\rte/sc_event.h **** 
  46:bsw\rte/sc_event.h **** 
  47:bsw\rte/sc_event.h **** /**************************************************************************************************
  48:bsw\rte/sc_event.h **** /* The signal configuration API block																				*/
  49:bsw\rte/sc_event.h **** /**************************************************************************************************
  50:bsw\rte/sc_event.h **** 
  51:bsw\rte/sc_event.h **** /**
  52:bsw\rte/sc_event.h ****  * Instances of the struct SC_EVENT_cfg_t represent the signal object configuration.
  53:bsw\rte/sc_event.h ****  */
  54:bsw\rte/sc_event.h **** struct SC_EVENT_cfg_s
  55:bsw\rte/sc_event.h **** {
  56:bsw\rte/sc_event.h ****     /**
  57:bsw\rte/sc_event.h ****      * Function pointer to the input driver
  58:bsw\rte/sc_event.h ****      */
  59:bsw\rte/sc_event.h ****     SC_EVENT_driverIn_t const inDriver;
  60:bsw\rte/sc_event.h **** 
  61:bsw\rte/sc_event.h ****     /**
  62:bsw\rte/sc_event.h ****      * Function pointer to the output driver table
  63:bsw\rte/sc_event.h ****      */
  64:bsw\rte/sc_event.h ****    SC_EVENT_driverOut_t const outDriver;
  65:bsw\rte/sc_event.h ****    
  66:bsw\rte/sc_event.h ****     /**
  67:bsw\rte/sc_event.h ****      * Event onUpdate
  68:bsw\rte/sc_event.h ****      */
  69:bsw\rte/sc_event.h ****     EventMaskType const evOnUpdate;
  70:bsw\rte/sc_event.h ****     
  71:bsw\rte/sc_event.h ****     
  72:bsw\rte/sc_event.h ****     /**
  73:bsw\rte/sc_event.h ****      * Event onError
  74:bsw\rte/sc_event.h ****      */
ARM GAS  C:\Users\vboxuser\AppData\Local\Temp\cct5XUj7.s 			page 6


  75:bsw\rte/sc_event.h ****     EventMaskType const evOnError;
  76:bsw\rte/sc_event.h ****     
  77:bsw\rte/sc_event.h ****     /**
  78:bsw\rte/sc_event.h ****      * Task Count onUpdate
  79:bsw\rte/sc_event.h ****      */
  80:bsw\rte/sc_event.h ****     size_t const onUpdateTaskCount;
  81:bsw\rte/sc_event.h **** 
  82:bsw\rte/sc_event.h ****     /**
  83:bsw\rte/sc_event.h ****      * Task List onUpdate
  84:bsw\rte/sc_event.h ****      */
  85:bsw\rte/sc_event.h ****     TaskTypeArray* const onUpdateTasks;
  86:bsw\rte/sc_event.h ****     
  87:bsw\rte/sc_event.h ****     /**
  88:bsw\rte/sc_event.h ****      * Task Count onError
  89:bsw\rte/sc_event.h ****      */
  90:bsw\rte/sc_event.h ****     size_t const onErrorTaskCount;
  91:bsw\rte/sc_event.h **** 
  92:bsw\rte/sc_event.h ****     /**
  93:bsw\rte/sc_event.h ****      * Task List onError
  94:bsw\rte/sc_event.h ****      */
  95:bsw\rte/sc_event.h ****     TaskTypeArray* const onErrorTasks;
  96:bsw\rte/sc_event.h **** 	
  97:bsw\rte/sc_event.h **** 	
  98:bsw\rte/sc_event.h **** 	/**
  99:bsw\rte/sc_event.h **** 	 * Ressourse is active? We need an additional boolean as a ressource value 0 is valid.
 100:bsw\rte/sc_event.h **** 	 */
 101:bsw\rte/sc_event.h **** 	 boolean_t const resourceActive;
 102:bsw\rte/sc_event.h **** 	 
 103:bsw\rte/sc_event.h **** 	/**
 104:bsw\rte/sc_event.h **** 	 * Ressourse 
 105:bsw\rte/sc_event.h **** 	 */
 106:bsw\rte/sc_event.h **** 	 ResourceType const resource;
 107:bsw\rte/sc_event.h **** 
 108:bsw\rte/sc_event.h **** };                                                                                                 
 109:bsw\rte/sc_event.h **** typedef const struct SC_EVENT_cfg_s SC_EVENT_cfg_t;
 110:bsw\rte/sc_event.h ****                               
 111:bsw\rte/sc_event.h **** /**************************************************************************************************
 112:bsw\rte/sc_event.h **** /* The data interface block																							*/
 113:bsw\rte/sc_event.h **** /**************************************************************************************************
 114:bsw\rte/sc_event.h **** 
 115:bsw\rte/sc_event.h ****                                                                                                    
 116:bsw\rte/sc_event.h **** 							  
 117:bsw\rte/sc_event.h **** /**
 118:bsw\rte/sc_event.h ****  * Instances of the struct SC_EVENT_t represent the signal objects.
 119:bsw\rte/sc_event.h ****  * A signal object contains the current application value 'value' as well as relevant meta data.
 120:bsw\rte/sc_event.h ****  */
 121:bsw\rte/sc_event.h **** struct SC_EVENT_s
 122:bsw\rte/sc_event.h **** {                                                                                                  
 123:bsw\rte/sc_event.h **** 
 124:bsw\rte/sc_event.h **** 	/**
 125:bsw\rte/sc_event.h **** 	 * Data buffer for the application value
 126:bsw\rte/sc_event.h **** 	 */
 127:bsw\rte/sc_event.h ****     SC_EVENT_data_t value;
 128:bsw\rte/sc_event.h **** 
 129:bsw\rte/sc_event.h ****     /**
 130:bsw\rte/sc_event.h ****      * Current signal status
 131:bsw\rte/sc_event.h ****      */
ARM GAS  C:\Users\vboxuser\AppData\Local\Temp\cct5XUj7.s 			page 7


 132:bsw\rte/sc_event.h ****     RTE_signalStatus_t status;
 133:bsw\rte/sc_event.h **** 
 134:bsw\rte/sc_event.h ****     /**
 135:bsw\rte/sc_event.h ****      * Current age of the signal (in calling cycles)
 136:bsw\rte/sc_event.h ****      */
 137:bsw\rte/sc_event.h ****     uint32_t age;
 138:bsw\rte/sc_event.h **** 
 139:bsw\rte/sc_event.h ****     /**
 140:bsw\rte/sc_event.h ****      * Pointer to the signal configuration
 141:bsw\rte/sc_event.h ****      */
 142:bsw\rte/sc_event.h **** 	const SC_EVENT_cfg_t * const    pSigCfg;
 143:bsw\rte/sc_event.h **** 
 144:bsw\rte/sc_event.h **** };                                                                                                 
 145:bsw\rte/sc_event.h **** typedef struct SC_EVENT_s SC_EVENT_t;
 146:bsw\rte/sc_event.h **** 
 147:bsw\rte/sc_event.h **** /**************************************************************************************************
 148:bsw\rte/sc_event.h **** /* Signal initialisation   																							*/
 149:bsw\rte/sc_event.h **** /**************************************************************************************************
 150:bsw\rte/sc_event.h **** 
 151:bsw\rte/sc_event.h **** /**
 152:bsw\rte/sc_event.h ****  * Initializes a signal instance with a passed init value.
 153:bsw\rte/sc_event.h ****  * Depending on the configured conversion or scaling function the raw_value will be calculated.
 154:bsw\rte/sc_event.h ****  * Signal status will change from RTE_SIGNALSTATUS_STARTUP to RTE_SIGNALSTATUS_INITIALIZED.
 155:bsw\rte/sc_event.h ****  *
 156:bsw\rte/sc_event.h ****  * @param  SC_EVENT_t * const signal: Pointer to the signal object which will be initialised
 157:bsw\rte/sc_event.h ****  * @return RC_t: standard return code, currently only RC_SUCCESS
 158:bsw\rte/sc_event.h ****  *
 159:bsw\rte/sc_event.h ****  **/
 160:bsw\rte/sc_event.h **** inline RC_t RTE_SC_EVENT_init( SC_EVENT_t * const signal )
 161:bsw\rte/sc_event.h **** {                                                                                                  
 162:bsw\rte/sc_event.h **** 
 163:bsw\rte/sc_event.h ****    RC_t ret = RC_SUCCESS;
 164:bsw\rte/sc_event.h **** 
 165:bsw\rte/sc_event.h ****    //Set value and raw value
 166:bsw\rte/sc_event.h ****    signal->value  = SC_EVENT_INIT_DATA;
 167:bsw\rte/sc_event.h ****    signal->age    = 0;
 168:bsw\rte/sc_event.h ****    signal->status = RTE_SIGNALSTATUS_INITIALIZED;
 169:bsw\rte/sc_event.h **** 
 170:bsw\rte/sc_event.h ****    return ret;
 171:bsw\rte/sc_event.h **** }
 172:bsw\rte/sc_event.h **** 
 173:bsw\rte/sc_event.h **** /**************************************************************************************************
 174:bsw\rte/sc_event.h **** /* Status and timeout control																						*/
 175:bsw\rte/sc_event.h **** /**************************************************************************************************
 176:bsw\rte/sc_event.h **** 
 177:bsw\rte/sc_event.h **** /**
 178:bsw\rte/sc_event.h ****  *  Returns the current signal status of the passed signal instance.
 179:bsw\rte/sc_event.h ****  *
 180:bsw\rte/sc_event.h ****  * @param  SC_EVENT_t * const signal: Pointer to the signal object
 181:bsw\rte/sc_event.h ****  * @return  sig_status_t: The current signal status
 182:bsw\rte/sc_event.h ****  *
 183:bsw\rte/sc_event.h ****  **/
 184:bsw\rte/sc_event.h **** inline RTE_signalStatus_t RTE_SC_EVENT_getStatus( const SC_EVENT_t * const signal )
 185:bsw\rte/sc_event.h **** {
 186:bsw\rte/sc_event.h ****    return signal->status;
 187:bsw\rte/sc_event.h **** }
 188:bsw\rte/sc_event.h **** 
ARM GAS  C:\Users\vboxuser\AppData\Local\Temp\cct5XUj7.s 			page 8


 189:bsw\rte/sc_event.h **** 
 190:bsw\rte/sc_event.h **** /**
 191:bsw\rte/sc_event.h ****  *  Sets a new signal status of the passed signal instance by passing the new status.
 192:bsw\rte/sc_event.h ****  *
 193:bsw\rte/sc_event.h ****  * @param  SC_EVENT_t * const signal: Pointer to the signal object
 194:bsw\rte/sc_event.h ****  * @param  const sig_status_t status: New signal status
 195:bsw\rte/sc_event.h ****  * @return RC_t: standard return code, currently only RC_SUCCESS
 196:bsw\rte/sc_event.h ****  *
 197:bsw\rte/sc_event.h ****  */
 198:bsw\rte/sc_event.h **** inline RC_t RTE_SC_EVENT_setStatus( SC_EVENT_t * const signal, const RTE_signalStatus_t status )
 199:bsw\rte/sc_event.h **** {
 200:bsw\rte/sc_event.h ****    signal->status = status;
 201:bsw\rte/sc_event.h ****    size_t taskNum=0;
 202:bsw\rte/sc_event.h ****    
 203:bsw\rte/sc_event.h ****    //Fire error events in case of invalid state
 204:bsw\rte/sc_event.h ****    if (signal->status == RTE_SIGNALSTATUS_INVALID)
 205:bsw\rte/sc_event.h ****    {
 206:bsw\rte/sc_event.h **** 	    //Pointer to the Taskarray, containing the tasks receiving the onUpdate events
 207:bsw\rte/sc_event.h **** 		TaskTypeArray* pTaskArray = signal->pSigCfg->onErrorTasks;
 208:bsw\rte/sc_event.h **** 
 209:bsw\rte/sc_event.h **** 		if (0 != signal->pSigCfg->evOnError && NULL != pTaskArray){
 210:bsw\rte/sc_event.h **** 			for( taskNum=0 ; taskNum < signal->pSigCfg->onErrorTaskCount ;taskNum++){
 211:bsw\rte/sc_event.h **** 				TaskType task = (*pTaskArray)[taskNum];
 212:bsw\rte/sc_event.h **** 				SetEvent( task, signal->pSigCfg->evOnError);
 213:bsw\rte/sc_event.h **** 			}
 214:bsw\rte/sc_event.h **** 		}
 215:bsw\rte/sc_event.h ****    }
 216:bsw\rte/sc_event.h ****    
 217:bsw\rte/sc_event.h ****    return RC_SUCCESS;
 218:bsw\rte/sc_event.h **** }
 219:bsw\rte/sc_event.h **** 
 220:bsw\rte/sc_event.h **** 
 221:bsw\rte/sc_event.h **** /**
 222:bsw\rte/sc_event.h ****  * Returns the count of refreshing trials (refresh, set or set_raw) that failed.
 223:bsw\rte/sc_event.h ****  * Prerquisite: The signal is refreshed cyclically
 224:bsw\rte/sc_event.h ****  *
 225:bsw\rte/sc_event.h ****  * @param  SC_EVENT_t * const signal: Pointer to the signal object
 226:bsw\rte/sc_event.h ****  * @return uint32_t: Number of cycles since the signal has been updated for the last time
 227:bsw\rte/sc_event.h ****  */
 228:bsw\rte/sc_event.h **** inline uint32_t RTE_SC_EVENT_getAge( const SC_EVENT_t * const signal )
 229:bsw\rte/sc_event.h **** {
 230:bsw\rte/sc_event.h ****    return signal->age;
 231:bsw\rte/sc_event.h **** }
 232:bsw\rte/sc_event.h **** 
 233:bsw\rte/sc_event.h **** /**
 234:bsw\rte/sc_event.h ****  * Should be called by application or driver if no new value can be provided.
 235:bsw\rte/sc_event.h ****  * @param  SC_EVENT_t * const signal: Pointer to the signal object
 236:bsw\rte/sc_event.h ****  * @param uint32_t increment: incrementvalue, typically in [ms]
 237:bsw\rte/sc_event.h ****  * @return void
 238:bsw\rte/sc_event.h ****  */
 239:bsw\rte/sc_event.h **** inline void RTE_SC_EVENT_incAge(  SC_EVENT_t * const signal , uint32_t increment)
 240:bsw\rte/sc_event.h **** {
 241:bsw\rte/sc_event.h **** 	   //Hack....
 242:bsw\rte/sc_event.h **** 	   if ( 0xFFFF0000 > (signal->age + increment) )
  37              		.loc 2 242 0
  38 0000 0C4B     		ldr	r3, .L5
  39 0002 5B68     		ldr	r3, [r3, #4]
ARM GAS  C:\Users\vboxuser\AppData\Local\Temp\cct5XUj7.s 			page 9


  40 0004 0344     		add	r3, r3, r0
  41 0006 13F1011F 		cmn	r3, #65537
  42 000a 01D8     		bhi	.L2
 243:bsw\rte/sc_event.h **** 	   {
 244:bsw\rte/sc_event.h **** 	      signal->age += increment;
  43              		.loc 2 244 0
  44 000c 094A     		ldr	r2, .L5
  45 000e 5360     		str	r3, [r2, #4]
  46              	.L2:
  47              	.LVL1:
  48              	.LBE15:
  49              	.LBE14:
  50              	.LBB16:
  51              	.LBB17:
  52              		.file 3 "bsw\\rte\\sc_clock.h"
   1:bsw\rte/sc_clock.h **** 
   2:bsw\rte/sc_clock.h **** 
   3:bsw\rte/sc_clock.h **** /**
   4:bsw\rte/sc_clock.h ****  *  file    SC_CLOCK_signal.h
   5:bsw\rte/sc_clock.h ****  *
   6:bsw\rte/sc_clock.h ****  *  brief   signal base class for signal sc_clock
   7:bsw\rte/sc_clock.h ****  *
   8:bsw\rte/sc_clock.h ****  *  author  Autogenerated, Peter Fromm       <peter.fromm@h-da.de>
   9:bsw\rte/sc_clock.h ****  *
  10:bsw\rte/sc_clock.h ****  * description: Storing clock data( hour + minute widget)
  11:bsw\rte/sc_clock.h ****  * name: sc_clock
  12:bsw\rte/sc_clock.h ****  * shortname: clock
  13:bsw\rte/sc_clock.h ****  *
  14:bsw\rte/sc_clock.h ****  */
  15:bsw\rte/sc_clock.h **** 
  16:bsw\rte/sc_clock.h **** 
  17:bsw\rte/sc_clock.h **** 
  18:bsw\rte/sc_clock.h **** #ifndef SC_CLOCK_SIGNAL_H_INCLUDED
  19:bsw\rte/sc_clock.h **** #define SC_CLOCK_SIGNAL_H_INCLUDED
  20:bsw\rte/sc_clock.h **** 
  21:bsw\rte/sc_clock.h **** /*================================================[ public includes  ]=============================
  22:bsw\rte/sc_clock.h **** #include "global.h"
  23:bsw\rte/sc_clock.h **** #include "project.h"
  24:bsw\rte/sc_clock.h **** #include "rte.h"
  25:bsw\rte/sc_clock.h **** #include "rte_types.h"
  26:bsw\rte/sc_clock.h **** 
  27:bsw\rte/sc_clock.h **** #include "sc_clock_type.h"
  28:bsw\rte/sc_clock.h **** 
  29:bsw\rte/sc_clock.h **** 
  30:bsw\rte/sc_clock.h **** /**************************************************************************************************
  31:bsw\rte/sc_clock.h **** /* The driver API block																						*/
  32:bsw\rte/sc_clock.h **** /**************************************************************************************************
  33:bsw\rte/sc_clock.h ****                                                                                                    
  34:bsw\rte/sc_clock.h **** /**
  35:bsw\rte/sc_clock.h ****  *  Definition of function types for driver interfaces.
  36:bsw\rte/sc_clock.h ****  *  I-Port
  37:bsw\rte/sc_clock.h ****  */
  38:bsw\rte/sc_clock.h **** typedef RC_t (*SC_CLOCK_driverIn_t)(SC_CLOCK_data_t * const);
  39:bsw\rte/sc_clock.h **** 
  40:bsw\rte/sc_clock.h **** /**
  41:bsw\rte/sc_clock.h ****  *  Definition of function types for driver interfaces.
  42:bsw\rte/sc_clock.h ****  *  O-Port
ARM GAS  C:\Users\vboxuser\AppData\Local\Temp\cct5XUj7.s 			page 10


  43:bsw\rte/sc_clock.h ****  */
  44:bsw\rte/sc_clock.h **** typedef RC_t (*SC_CLOCK_driverOut_t)( const SC_CLOCK_data_t * const);
  45:bsw\rte/sc_clock.h **** 
  46:bsw\rte/sc_clock.h **** 
  47:bsw\rte/sc_clock.h **** /**************************************************************************************************
  48:bsw\rte/sc_clock.h **** /* The signal configuration API block																				*/
  49:bsw\rte/sc_clock.h **** /**************************************************************************************************
  50:bsw\rte/sc_clock.h **** 
  51:bsw\rte/sc_clock.h **** /**
  52:bsw\rte/sc_clock.h ****  * Instances of the struct SC_CLOCK_cfg_t represent the signal object configuration.
  53:bsw\rte/sc_clock.h ****  */
  54:bsw\rte/sc_clock.h **** struct SC_CLOCK_cfg_s
  55:bsw\rte/sc_clock.h **** {
  56:bsw\rte/sc_clock.h ****     /**
  57:bsw\rte/sc_clock.h ****      * Function pointer to the input driver
  58:bsw\rte/sc_clock.h ****      */
  59:bsw\rte/sc_clock.h ****     SC_CLOCK_driverIn_t const inDriver;
  60:bsw\rte/sc_clock.h **** 
  61:bsw\rte/sc_clock.h ****     /**
  62:bsw\rte/sc_clock.h ****      * Function pointer to the output driver table
  63:bsw\rte/sc_clock.h ****      */
  64:bsw\rte/sc_clock.h ****    SC_CLOCK_driverOut_t const outDriver;
  65:bsw\rte/sc_clock.h ****    
  66:bsw\rte/sc_clock.h ****     /**
  67:bsw\rte/sc_clock.h ****      * Event onUpdate
  68:bsw\rte/sc_clock.h ****      */
  69:bsw\rte/sc_clock.h ****     EventMaskType const evOnUpdate;
  70:bsw\rte/sc_clock.h ****     
  71:bsw\rte/sc_clock.h ****     
  72:bsw\rte/sc_clock.h ****     /**
  73:bsw\rte/sc_clock.h ****      * Event onError
  74:bsw\rte/sc_clock.h ****      */
  75:bsw\rte/sc_clock.h ****     EventMaskType const evOnError;
  76:bsw\rte/sc_clock.h ****     
  77:bsw\rte/sc_clock.h ****     /**
  78:bsw\rte/sc_clock.h ****      * Task Count onUpdate
  79:bsw\rte/sc_clock.h ****      */
  80:bsw\rte/sc_clock.h ****     size_t const onUpdateTaskCount;
  81:bsw\rte/sc_clock.h **** 
  82:bsw\rte/sc_clock.h ****     /**
  83:bsw\rte/sc_clock.h ****      * Task List onUpdate
  84:bsw\rte/sc_clock.h ****      */
  85:bsw\rte/sc_clock.h ****     TaskTypeArray* const onUpdateTasks;
  86:bsw\rte/sc_clock.h ****     
  87:bsw\rte/sc_clock.h ****     /**
  88:bsw\rte/sc_clock.h ****      * Task Count onError
  89:bsw\rte/sc_clock.h ****      */
  90:bsw\rte/sc_clock.h ****     size_t const onErrorTaskCount;
  91:bsw\rte/sc_clock.h **** 
  92:bsw\rte/sc_clock.h ****     /**
  93:bsw\rte/sc_clock.h ****      * Task List onError
  94:bsw\rte/sc_clock.h ****      */
  95:bsw\rte/sc_clock.h ****     TaskTypeArray* const onErrorTasks;
  96:bsw\rte/sc_clock.h **** 	
  97:bsw\rte/sc_clock.h **** 	
  98:bsw\rte/sc_clock.h **** 	/**
  99:bsw\rte/sc_clock.h **** 	 * Ressourse is active? We need an additional boolean as a ressource value 0 is valid.
ARM GAS  C:\Users\vboxuser\AppData\Local\Temp\cct5XUj7.s 			page 11


 100:bsw\rte/sc_clock.h **** 	 */
 101:bsw\rte/sc_clock.h **** 	 boolean_t const resourceActive;
 102:bsw\rte/sc_clock.h **** 	 
 103:bsw\rte/sc_clock.h **** 	/**
 104:bsw\rte/sc_clock.h **** 	 * Ressourse 
 105:bsw\rte/sc_clock.h **** 	 */
 106:bsw\rte/sc_clock.h **** 	 ResourceType const resource;
 107:bsw\rte/sc_clock.h **** 
 108:bsw\rte/sc_clock.h **** };                                                                                                 
 109:bsw\rte/sc_clock.h **** typedef const struct SC_CLOCK_cfg_s SC_CLOCK_cfg_t;
 110:bsw\rte/sc_clock.h ****                               
 111:bsw\rte/sc_clock.h **** /**************************************************************************************************
 112:bsw\rte/sc_clock.h **** /* The data interface block																							*/
 113:bsw\rte/sc_clock.h **** /**************************************************************************************************
 114:bsw\rte/sc_clock.h **** 
 115:bsw\rte/sc_clock.h ****                                                                                                    
 116:bsw\rte/sc_clock.h **** 							  
 117:bsw\rte/sc_clock.h **** /**
 118:bsw\rte/sc_clock.h ****  * Instances of the struct SC_CLOCK_t represent the signal objects.
 119:bsw\rte/sc_clock.h ****  * A signal object contains the current application value 'value' as well as relevant meta data.
 120:bsw\rte/sc_clock.h ****  */
 121:bsw\rte/sc_clock.h **** struct SC_CLOCK_s
 122:bsw\rte/sc_clock.h **** {                                                                                                  
 123:bsw\rte/sc_clock.h **** 
 124:bsw\rte/sc_clock.h **** 	/**
 125:bsw\rte/sc_clock.h **** 	 * Data buffer for the application value
 126:bsw\rte/sc_clock.h **** 	 */
 127:bsw\rte/sc_clock.h ****     SC_CLOCK_data_t value;
 128:bsw\rte/sc_clock.h **** 
 129:bsw\rte/sc_clock.h ****     /**
 130:bsw\rte/sc_clock.h ****      * Current signal status
 131:bsw\rte/sc_clock.h ****      */
 132:bsw\rte/sc_clock.h ****     RTE_signalStatus_t status;
 133:bsw\rte/sc_clock.h **** 
 134:bsw\rte/sc_clock.h ****     /**
 135:bsw\rte/sc_clock.h ****      * Current age of the signal (in calling cycles)
 136:bsw\rte/sc_clock.h ****      */
 137:bsw\rte/sc_clock.h ****     uint32_t age;
 138:bsw\rte/sc_clock.h **** 
 139:bsw\rte/sc_clock.h ****     /**
 140:bsw\rte/sc_clock.h ****      * Pointer to the signal configuration
 141:bsw\rte/sc_clock.h ****      */
 142:bsw\rte/sc_clock.h **** 	const SC_CLOCK_cfg_t * const    pSigCfg;
 143:bsw\rte/sc_clock.h **** 
 144:bsw\rte/sc_clock.h **** };                                                                                                 
 145:bsw\rte/sc_clock.h **** typedef struct SC_CLOCK_s SC_CLOCK_t;
 146:bsw\rte/sc_clock.h **** 
 147:bsw\rte/sc_clock.h **** /**************************************************************************************************
 148:bsw\rte/sc_clock.h **** /* Signal initialisation   																							*/
 149:bsw\rte/sc_clock.h **** /**************************************************************************************************
 150:bsw\rte/sc_clock.h **** 
 151:bsw\rte/sc_clock.h **** /**
 152:bsw\rte/sc_clock.h ****  * Initializes a signal instance with a passed init value.
 153:bsw\rte/sc_clock.h ****  * Depending on the configured conversion or scaling function the raw_value will be calculated.
 154:bsw\rte/sc_clock.h ****  * Signal status will change from RTE_SIGNALSTATUS_STARTUP to RTE_SIGNALSTATUS_INITIALIZED.
 155:bsw\rte/sc_clock.h ****  *
 156:bsw\rte/sc_clock.h ****  * @param  SC_CLOCK_t * const signal: Pointer to the signal object which will be initialised
ARM GAS  C:\Users\vboxuser\AppData\Local\Temp\cct5XUj7.s 			page 12


 157:bsw\rte/sc_clock.h ****  * @return RC_t: standard return code, currently only RC_SUCCESS
 158:bsw\rte/sc_clock.h ****  *
 159:bsw\rte/sc_clock.h ****  **/
 160:bsw\rte/sc_clock.h **** inline RC_t RTE_SC_CLOCK_init( SC_CLOCK_t * const signal )
 161:bsw\rte/sc_clock.h **** {                                                                                                  
 162:bsw\rte/sc_clock.h **** 
 163:bsw\rte/sc_clock.h ****    RC_t ret = RC_SUCCESS;
 164:bsw\rte/sc_clock.h **** 
 165:bsw\rte/sc_clock.h ****    //Set value and raw value
 166:bsw\rte/sc_clock.h ****    signal->value  = SC_CLOCK_INIT_DATA;
 167:bsw\rte/sc_clock.h ****    signal->age    = 0;
 168:bsw\rte/sc_clock.h ****    signal->status = RTE_SIGNALSTATUS_INITIALIZED;
 169:bsw\rte/sc_clock.h **** 
 170:bsw\rte/sc_clock.h ****    return ret;
 171:bsw\rte/sc_clock.h **** }
 172:bsw\rte/sc_clock.h **** 
 173:bsw\rte/sc_clock.h **** /**************************************************************************************************
 174:bsw\rte/sc_clock.h **** /* Status and timeout control																						*/
 175:bsw\rte/sc_clock.h **** /**************************************************************************************************
 176:bsw\rte/sc_clock.h **** 
 177:bsw\rte/sc_clock.h **** /**
 178:bsw\rte/sc_clock.h ****  *  Returns the current signal status of the passed signal instance.
 179:bsw\rte/sc_clock.h ****  *
 180:bsw\rte/sc_clock.h ****  * @param  SC_CLOCK_t * const signal: Pointer to the signal object
 181:bsw\rte/sc_clock.h ****  * @return  sig_status_t: The current signal status
 182:bsw\rte/sc_clock.h ****  *
 183:bsw\rte/sc_clock.h ****  **/
 184:bsw\rte/sc_clock.h **** inline RTE_signalStatus_t RTE_SC_CLOCK_getStatus( const SC_CLOCK_t * const signal )
 185:bsw\rte/sc_clock.h **** {
 186:bsw\rte/sc_clock.h ****    return signal->status;
 187:bsw\rte/sc_clock.h **** }
 188:bsw\rte/sc_clock.h **** 
 189:bsw\rte/sc_clock.h **** 
 190:bsw\rte/sc_clock.h **** /**
 191:bsw\rte/sc_clock.h ****  *  Sets a new signal status of the passed signal instance by passing the new status.
 192:bsw\rte/sc_clock.h ****  *
 193:bsw\rte/sc_clock.h ****  * @param  SC_CLOCK_t * const signal: Pointer to the signal object
 194:bsw\rte/sc_clock.h ****  * @param  const sig_status_t status: New signal status
 195:bsw\rte/sc_clock.h ****  * @return RC_t: standard return code, currently only RC_SUCCESS
 196:bsw\rte/sc_clock.h ****  *
 197:bsw\rte/sc_clock.h ****  */
 198:bsw\rte/sc_clock.h **** inline RC_t RTE_SC_CLOCK_setStatus( SC_CLOCK_t * const signal, const RTE_signalStatus_t status )
 199:bsw\rte/sc_clock.h **** {
 200:bsw\rte/sc_clock.h ****    signal->status = status;
 201:bsw\rte/sc_clock.h ****    size_t taskNum=0;
 202:bsw\rte/sc_clock.h ****    
 203:bsw\rte/sc_clock.h ****    //Fire error events in case of invalid state
 204:bsw\rte/sc_clock.h ****    if (signal->status == RTE_SIGNALSTATUS_INVALID)
 205:bsw\rte/sc_clock.h ****    {
 206:bsw\rte/sc_clock.h **** 	    //Pointer to the Taskarray, containing the tasks receiving the onUpdate events
 207:bsw\rte/sc_clock.h **** 		TaskTypeArray* pTaskArray = signal->pSigCfg->onErrorTasks;
 208:bsw\rte/sc_clock.h **** 
 209:bsw\rte/sc_clock.h **** 		if (0 != signal->pSigCfg->evOnError && NULL != pTaskArray){
 210:bsw\rte/sc_clock.h **** 			for( taskNum=0 ; taskNum < signal->pSigCfg->onErrorTaskCount ;taskNum++){
 211:bsw\rte/sc_clock.h **** 				TaskType task = (*pTaskArray)[taskNum];
 212:bsw\rte/sc_clock.h **** 				SetEvent( task, signal->pSigCfg->evOnError);
 213:bsw\rte/sc_clock.h **** 			}
ARM GAS  C:\Users\vboxuser\AppData\Local\Temp\cct5XUj7.s 			page 13


 214:bsw\rte/sc_clock.h **** 		}
 215:bsw\rte/sc_clock.h ****    }
 216:bsw\rte/sc_clock.h ****    
 217:bsw\rte/sc_clock.h ****    return RC_SUCCESS;
 218:bsw\rte/sc_clock.h **** }
 219:bsw\rte/sc_clock.h **** 
 220:bsw\rte/sc_clock.h **** 
 221:bsw\rte/sc_clock.h **** /**
 222:bsw\rte/sc_clock.h ****  * Returns the count of refreshing trials (refresh, set or set_raw) that failed.
 223:bsw\rte/sc_clock.h ****  * Prerquisite: The signal is refreshed cyclically
 224:bsw\rte/sc_clock.h ****  *
 225:bsw\rte/sc_clock.h ****  * @param  SC_CLOCK_t * const signal: Pointer to the signal object
 226:bsw\rte/sc_clock.h ****  * @return uint32_t: Number of cycles since the signal has been updated for the last time
 227:bsw\rte/sc_clock.h ****  */
 228:bsw\rte/sc_clock.h **** inline uint32_t RTE_SC_CLOCK_getAge( const SC_CLOCK_t * const signal )
 229:bsw\rte/sc_clock.h **** {
 230:bsw\rte/sc_clock.h ****    return signal->age;
 231:bsw\rte/sc_clock.h **** }
 232:bsw\rte/sc_clock.h **** 
 233:bsw\rte/sc_clock.h **** /**
 234:bsw\rte/sc_clock.h ****  * Should be called by application or driver if no new value can be provided.
 235:bsw\rte/sc_clock.h ****  * @param  SC_CLOCK_t * const signal: Pointer to the signal object
 236:bsw\rte/sc_clock.h ****  * @param uint32_t increment: incrementvalue, typically in [ms]
 237:bsw\rte/sc_clock.h ****  * @return void
 238:bsw\rte/sc_clock.h ****  */
 239:bsw\rte/sc_clock.h **** inline void RTE_SC_CLOCK_incAge(  SC_CLOCK_t * const signal , uint32_t increment)
 240:bsw\rte/sc_clock.h **** {
 241:bsw\rte/sc_clock.h **** 	   //Hack....
 242:bsw\rte/sc_clock.h **** 	   if ( 0xFFFF0000 > (signal->age + increment) )
  53              		.loc 3 242 0
  54 0010 084B     		ldr	r3, .L5
  55 0012 9B6B     		ldr	r3, [r3, #56]
  56 0014 0344     		add	r3, r3, r0
  57 0016 13F1011F 		cmn	r3, #65537
  58 001a 01D8     		bhi	.L3
 243:bsw\rte/sc_clock.h **** 	   {
 244:bsw\rte/sc_clock.h **** 	      signal->age += increment;
  59              		.loc 3 244 0
  60 001c 054A     		ldr	r2, .L5
  61 001e 9363     		str	r3, [r2, #56]
  62              	.L3:
  63              	.LVL2:
  64              	.LBE17:
  65              	.LBE16:
  66              	.LBB18:
  67              	.LBB19:
 242:bsw\rte/sc_clock.h **** 	   {
  68              		.loc 3 242 0
  69 0020 044B     		ldr	r3, .L5
  70 0022 DB6E     		ldr	r3, [r3, #108]
  71 0024 1844     		add	r0, r0, r3
  72              	.LVL3:
  73 0026 10F1011F 		cmn	r0, #65537
  74 002a 01D8     		bhi	.L1
  75              		.loc 3 244 0
  76 002c 014B     		ldr	r3, .L5
  77 002e D866     		str	r0, [r3, #108]
ARM GAS  C:\Users\vboxuser\AppData\Local\Temp\cct5XUj7.s 			page 14


  78              	.LVL4:
  79              	.L1:
  80 0030 7047     		bx	lr
  81              	.L6:
  82 0032 00BF     		.align	2
  83              	.L5:
  84 0034 00000000 		.word	.LANCHOR0
  85              	.LBE19:
  86              	.LBE18:
  87              		.cfi_endproc
  88              	.LFE133:
  89              		.size	RTE_timertick_sp_common_tick, .-RTE_timertick_sp_common_tick
  90              		.section	.text.RTE_reset_sp_common,"ax",%progbits
  91              		.align	2
  92              		.global	RTE_reset_sp_common
  93              		.thumb
  94              		.thumb_func
  95              		.type	RTE_reset_sp_common, %function
  96              	RTE_reset_sp_common:
  97              	.LFB134:
 176:bsw\rte/sp_common.c ****    RTE_SC_EVENT_incAge( &SO_EVENT_signal, tick); 
 177:bsw\rte/sp_common.c ****    RTE_SC_CLOCK_incAge( &SO_CLOCK_signal, tick); 
 178:bsw\rte/sp_common.c ****    RTE_SC_CLOCK_incAge( &SO_DISPLAY_signal, tick); 
 179:bsw\rte/sp_common.c ****    
 180:bsw\rte/sp_common.c **** }
 181:bsw\rte/sp_common.c **** 
 182:bsw\rte/sp_common.c **** /*
 183:bsw\rte/sp_common.c ****  * Reset all signals in this pool
 184:bsw\rte/sp_common.c ****  */
 185:bsw\rte/sp_common.c **** void RTE_reset_sp_common(){
  98              		.loc 1 185 0
  99              		.cfi_startproc
 100              		@ args = 0, pretend = 0, frame = 0
 101              		@ frame_needed = 0, uses_anonymous_args = 0
 102 0000 F0B5     		push	{r4, r5, r6, r7, lr}
 103              		.cfi_def_cfa_offset 20
 104              		.cfi_offset 4, -20
 105              		.cfi_offset 5, -16
 106              		.cfi_offset 6, -12
 107              		.cfi_offset 7, -8
 108              		.cfi_offset 14, -4
 109              	.LVL5:
 110              	.LBB20:
 111              	.LBB21:
 166:bsw\rte/sc_event.h ****    signal->age    = 0;
 112              		.loc 2 166 0
 113 0002 154F     		ldr	r7, .L9
 114 0004 4FF0000E 		mov	lr, #0
 115 0008 87F800E0 		strb	lr, [r7]
 167:bsw\rte/sc_event.h ****    signal->status = RTE_SIGNALSTATUS_INITIALIZED;
 116              		.loc 2 167 0
 117 000c C7F804E0 		str	lr, [r7, #4]
 168:bsw\rte/sc_event.h **** 
 118              		.loc 2 168 0
 119 0010 4FF0010C 		mov	ip, #1
 120 0014 87F801C0 		strb	ip, [r7, #1]
 121              	.LVL6:
ARM GAS  C:\Users\vboxuser\AppData\Local\Temp\cct5XUj7.s 			page 15


 122              	.LBE21:
 123              	.LBE20:
 124              	.LBB22:
 125              	.LBB23:
 166:bsw\rte/sc_clock.h ****    signal->age    = 0;
 126              		.loc 3 166 0
 127 0018 104D     		ldr	r5, .L9+4
 128 001a 07F10C06 		add	r6, r7, #12
 129 001e 2C46     		mov	r4, r5
 130 0020 0FCC     		ldmia	r4!, {r0, r1, r2, r3}
 131 0022 0FC6     		stmia	r6!, {r0, r1, r2, r3}
 132 0024 0FCC     		ldmia	r4!, {r0, r1, r2, r3}
 133 0026 0FC6     		stmia	r6!, {r0, r1, r2, r3}
 134 0028 94E80300 		ldmia	r4, {r0, r1}
 135 002c 86E80300 		stmia	r6, {r0, r1}
 167:bsw\rte/sc_clock.h ****    signal->status = RTE_SIGNALSTATUS_INITIALIZED;
 136              		.loc 3 167 0
 137 0030 C7F838E0 		str	lr, [r7, #56]
 168:bsw\rte/sc_clock.h **** 
 138              		.loc 3 168 0
 139 0034 87F834C0 		strb	ip, [r7, #52]
 140              	.LVL7:
 141              	.LBE23:
 142              	.LBE22:
 143              	.LBB24:
 144              	.LBB25:
 166:bsw\rte/sc_clock.h ****    signal->age    = 0;
 145              		.loc 3 166 0
 146 0038 07F14006 		add	r6, r7, #64
 147 003c 0FCD     		ldmia	r5!, {r0, r1, r2, r3}
 148 003e 0FC6     		stmia	r6!, {r0, r1, r2, r3}
 149 0040 0FCD     		ldmia	r5!, {r0, r1, r2, r3}
 150 0042 0FC6     		stmia	r6!, {r0, r1, r2, r3}
 151 0044 94E80300 		ldmia	r4, {r0, r1}
 152 0048 86E80300 		stmia	r6, {r0, r1}
 167:bsw\rte/sc_clock.h ****    signal->status = RTE_SIGNALSTATUS_INITIALIZED;
 153              		.loc 3 167 0
 154 004c C7F86CE0 		str	lr, [r7, #108]
 168:bsw\rte/sc_clock.h **** 
 155              		.loc 3 168 0
 156 0050 87F868C0 		strb	ip, [r7, #104]
 157              	.LVL8:
 158 0054 F0BD     		pop	{r4, r5, r6, r7, pc}
 159              	.L10:
 160 0056 00BF     		.align	2
 161              	.L9:
 162 0058 00000000 		.word	.LANCHOR0
 163 005c 00000000 		.word	.LANCHOR1
 164              	.LBE25:
 165              	.LBE24:
 166              		.cfi_endproc
 167              	.LFE134:
 168              		.size	RTE_reset_sp_common, .-RTE_reset_sp_common
 169              		.global	SO_DISPLAY_signal
 170              		.global	SO_CLOCK_signal
 171              		.global	SO_EVENT_signal
 172              		.global	so_event_updTasks
ARM GAS  C:\Users\vboxuser\AppData\Local\Temp\cct5XUj7.s 			page 16


 173              		.section	.rodata
 174              		.align	2
 175              		.set	.LANCHOR1,. + 0
 176              	.LC0:
 177 0000 00000000 		.word	0
 178 0004 00       		.byte	0
 179 0005 000000   		.space	3
 180 0008 00000000 		.word	0
 181 000c 00       		.byte	0
 182 000d 00       		.space	1
 183 000e 04       		.byte	4
 184 000f 00       		.space	1
 185 0010 0000     		.short	0
 186 0012 FFFF     		.short	-1
 187 0014 0A       		.byte	10
 188 0015 3C       		.byte	60
 189 0016 0000     		.space	2
 190 0018 00000000 		.word	0
 191 001c 00       		.byte	0
 192 001d 00       		.space	1
 193 001e 04       		.byte	4
 194 001f 00       		.space	1
 195 0020 0000     		.short	0
 196 0022 FFFF     		.short	-1
 197 0024 50       		.byte	80
 198 0025 3C       		.byte	60
 199 0026 0000     		.space	2
 200              		.type	SO_DISPLAY_cfg, %object
 201              		.size	SO_DISPLAY_cfg, 40
 202              	SO_DISPLAY_cfg:
 203 0028 00000000 		.word	0
 204 002c 00000000 		.word	SC_CLOCK_driverOut
 205 0030 00000000 		.word	0
 206 0034 00000000 		.word	0
 207 0038 00000000 		.word	0
 208 003c 00000000 		.word	0
 209 0040 00000000 		.word	0
 210 0044 00000000 		.word	0
 211 0048 01       		.byte	1
 212 0049 000000   		.space	3
 213 004c 00000000 		.word	0
 214              		.type	SO_CLOCK_cfg, %object
 215              		.size	SO_CLOCK_cfg, 40
 216              	SO_CLOCK_cfg:
 217 0050 00000000 		.word	0
 218 0054 00000000 		.word	0
 219 0058 00000000 		.word	0
 220 005c 00000000 		.word	0
 221 0060 00000000 		.word	0
 222 0064 00000000 		.word	0
 223 0068 00000000 		.word	0
 224 006c 00000000 		.word	0
 225 0070 01       		.byte	1
 226 0071 000000   		.space	3
 227 0074 00000000 		.word	0
 228              		.type	SO_EVENT_cfg, %object
 229              		.size	SO_EVENT_cfg, 40
ARM GAS  C:\Users\vboxuser\AppData\Local\Temp\cct5XUj7.s 			page 17


 230              	SO_EVENT_cfg:
 231 0078 00000000 		.word	0
 232 007c 00000000 		.word	0
 233 0080 01000000 		.word	1
 234 0084 00000000 		.word	0
 235 0088 01000000 		.word	1
 236 008c 00000000 		.word	so_event_updTasks
 237 0090 00000000 		.word	0
 238 0094 00000000 		.word	0
 239 0098 00       		.byte	0
 240 0099 000000   		.space	3
 241 009c 00000000 		.word	0
 242              		.type	so_event_updTasks, %object
 243              		.size	so_event_updTasks, 4
 244              	so_event_updTasks:
 245 00a0 03000000 		.word	3
 246              		.data
 247              		.align	2
 248              		.set	.LANCHOR0,. + 0
 249              		.type	SO_EVENT_signal, %object
 250              		.size	SO_EVENT_signal, 12
 251              	SO_EVENT_signal:
 252 0000 00       		.byte	0
 253 0001 00       		.byte	0
 254 0002 0000     		.space	2
 255 0004 00000000 		.word	0
 256 0008 78000000 		.word	SO_EVENT_cfg
 257              		.type	SO_CLOCK_signal, %object
 258              		.size	SO_CLOCK_signal, 52
 259              	SO_CLOCK_signal:
 260 000c 00000000 		.word	0
 261 0010 00       		.byte	0
 262 0011 000000   		.space	3
 263 0014 00000000 		.word	0
 264 0018 00       		.byte	0
 265 0019 00       		.space	1
 266 001a 04       		.byte	4
 267 001b 00       		.space	1
 268 001c 0000     		.short	0
 269 001e FFFF     		.short	-1
 270 0020 0A       		.byte	10
 271 0021 3C       		.byte	60
 272 0022 0000     		.space	2
 273 0024 00000000 		.word	0
 274 0028 00       		.byte	0
 275 0029 00       		.space	1
 276 002a 04       		.byte	4
 277 002b 00       		.space	1
 278 002c 0000     		.short	0
 279 002e FFFF     		.short	-1
 280 0030 50       		.byte	80
 281 0031 3C       		.byte	60
 282 0032 0000     		.space	2
 283 0034 00       		.byte	0
 284 0035 000000   		.space	3
 285 0038 00000000 		.word	0
 286 003c 50000000 		.word	SO_CLOCK_cfg
ARM GAS  C:\Users\vboxuser\AppData\Local\Temp\cct5XUj7.s 			page 18


 287              		.type	SO_DISPLAY_signal, %object
 288              		.size	SO_DISPLAY_signal, 52
 289              	SO_DISPLAY_signal:
 290 0040 00000000 		.word	0
 291 0044 00       		.byte	0
 292 0045 000000   		.space	3
 293 0048 00000000 		.word	0
 294 004c 00       		.byte	0
 295 004d 00       		.space	1
 296 004e 04       		.byte	4
 297 004f 00       		.space	1
 298 0050 0000     		.short	0
 299 0052 FFFF     		.short	-1
 300 0054 0A       		.byte	10
 301 0055 3C       		.byte	60
 302 0056 0000     		.space	2
 303 0058 00000000 		.word	0
 304 005c 00       		.byte	0
 305 005d 00       		.space	1
 306 005e 04       		.byte	4
 307 005f 00       		.space	1
 308 0060 0000     		.short	0
 309 0062 FFFF     		.short	-1
 310 0064 50       		.byte	80
 311 0065 3C       		.byte	60
 312 0066 0000     		.space	2
 313 0068 00       		.byte	0
 314 0069 000000   		.space	3
 315 006c 00000000 		.word	0
 316 0070 28000000 		.word	SO_DISPLAY_cfg
 317              		.text
 318              	.Letext0:
 319              		.file 4 "c:\\program files (x86)\\cypress\\psoc creator\\4.4\\psoc creator\\import\\gnu\\arm\\5.4.
 320              		.file 5 "c:\\program files (x86)\\cypress\\psoc creator\\4.4\\psoc creator\\import\\gnu\\arm\\5.4.
 321              		.file 6 "c:\\program files (x86)\\cypress\\psoc creator\\4.4\\psoc creator\\import\\gnu\\arm\\5.4.
 322              		.file 7 "Generated_Source\\PSoC5/ErikaOS_1_common_ee_types.inc"
 323              		.file 8 "Generated_Source\\PSoC5/ErikaOS_1_cortex_mx_ee_cpu.inc"
 324              		.file 9 "Generated_Source\\PSoC5/ErikaOS_1_ee_oo_common.inc"
 325              		.file 10 ".\\bsw/global.h"
 326              		.file 11 "bsw\\rte\\rte_types.h"
 327              		.file 12 "bsw\\rte\\rte.h"
 328              		.file 13 "bsw\\rte\\sc_event_type.h"
 329              		.file 14 ".\\asw/statemachine.h"
 330              		.file 15 ".\\bsw\\tft/tft.h"
 331              		.file 16 "bsw\\rte\\sc_clock_type.h"
 332              		.file 17 "Generated_Source\\PSoC5/ErikaOS_1_ee_oo_intfunc.inc"
 333              		.file 18 "Generated_Source\\PSoC5/ErikaOS_1_cortex_mx_ee_context.inc"
 334              		.file 19 "Generated_Source\\PSoC5/ErikaOS_1_common_ee_primitives.inc"
 335              		.file 20 "Generated_Source\\PSoC5/core_cm3.h"