ARM GAS  C:\Users\vboxuser\AppData\Local\Temp\ccUffjqi.s 			page 1


   1              		.syntax unified
   2              		.cpu cortex-m3
   3              		.fpu softvfp
   4              		.eabi_attribute 20, 1
   5              		.eabi_attribute 21, 1
   6              		.eabi_attribute 23, 3
   7              		.eabi_attribute 24, 1
   8              		.eabi_attribute 25, 1
   9              		.eabi_attribute 26, 1
  10              		.eabi_attribute 30, 1
  11              		.eabi_attribute 34, 1
  12              		.eabi_attribute 18, 4
  13              		.thumb
  14              		.syntax unified
  15              		.file	"statemachine.c"
  16              		.text
  17              	.Ltext0:
  18              		.cfi_sections	.debug_frame
  19              		.section	.text.STATE__getIndexCurrentState,"ax",%progbits
  20              		.align	2
  21              		.global	STATE__getIndexCurrentState
  22              		.thumb
  23              		.thumb_func
  24              		.type	STATE__getIndexCurrentState, %function
  25              	STATE__getIndexCurrentState:
  26              	.LFB114:
  27              		.file 1 "asw\\statemachine.c"
   1:asw/statemachine.c **** /**
   2:asw/statemachine.c **** * \file <filename>
   3:asw/statemachine.c **** * \author <author-name>
   4:asw/statemachine.c **** * \date <date>
   5:asw/statemachine.c **** *
   6:asw/statemachine.c **** * \brief <Symbolic File name>
   7:asw/statemachine.c **** *
   8:asw/statemachine.c **** * \copyright Copyright ©2016
   9:asw/statemachine.c **** * Department of electrical engineering and information technology, Hochschule Darmstadt - Universit
  10:asw/statemachine.c **** * Permission to use, copy, modify, and distribute this software and its documentation for education
  11:asw/statemachine.c **** * (unless permitted by h_da) and official h_da projects, is hereby granted for enrolled students of
  12:asw/statemachine.c **** * this paragraph and the following paragraph appear in all copies, modifications, and distributions
  13:asw/statemachine.c **** * Contact Prof.Dr.-Ing. Peter Fromm, peter.fromm@h-da.de, Birkenweg 8 64295 Darmstadt - GERMANY for
  14:asw/statemachine.c **** *
  15:asw/statemachine.c **** * \warning This software is a PROTOTYPE version and is not designed or intended for use in producti
  16:asw/statemachine.c **** * The user represents and warrants that it will NOT use or redistribute the Software for such purpo
  17:asw/statemachine.c **** * This prototype is for research purposes only. This software is provided "AS IS," without a warran
  18:asw/statemachine.c **** */
  19:asw/statemachine.c **** 
  20:asw/statemachine.c **** /*****************************************************************************/
  21:asw/statemachine.c **** /* Include files                                                             */
  22:asw/statemachine.c **** /*****************************************************************************/
  23:asw/statemachine.c **** #include "statemachine.h"
  24:asw/statemachine.c **** #include "logging.h"
  25:asw/statemachine.c **** 
  26:asw/statemachine.c **** /*****************************************************************************/
  27:asw/statemachine.c **** /* Local pre-processor symbols/macros ('#define')                            */
  28:asw/statemachine.c **** /*****************************************************************************/
  29:asw/statemachine.c **** 
  30:asw/statemachine.c **** /*****************************************************************************/
ARM GAS  C:\Users\vboxuser\AppData\Local\Temp\ccUffjqi.s 			page 2


  31:asw/statemachine.c **** /* Global variable definitions (declared in header file with 'extern')       */
  32:asw/statemachine.c **** /*****************************************************************************/
  33:asw/statemachine.c **** 
  34:asw/statemachine.c **** /*****************************************************************************/
  35:asw/statemachine.c **** /* Local type definitions ('typedef')                                        */
  36:asw/statemachine.c **** /*****************************************************************************/
  37:asw/statemachine.c **** 
  38:asw/statemachine.c **** /*****************************************************************************/
  39:asw/statemachine.c **** /* Local variable definitions ('static')                                     */
  40:asw/statemachine.c **** /*****************************************************************************/
  41:asw/statemachine.c **** 
  42:asw/statemachine.c **** 
  43:asw/statemachine.c **** 
  44:asw/statemachine.c **** /*****************************************************************************/
  45:asw/statemachine.c **** /* Local function prototypes ('static')                                      */
  46:asw/statemachine.c **** /*****************************************************************************/
  47:asw/statemachine.c **** 
  48:asw/statemachine.c **** 
  49:asw/statemachine.c **** /*****************************************************************************/
  50:asw/statemachine.c **** /* Function implementation - global ('extern') and local ('static')          */
  51:asw/statemachine.c **** /*****************************************************************************/
  52:asw/statemachine.c **** 
  53:asw/statemachine.c **** #define INVALIDINDEX -1
  54:asw/statemachine.c **** 
  55:asw/statemachine.c **** /** return the index of the provided state in the given table 
  56:asw/statemachine.c ****  **/
  57:asw/statemachine.c **** sint16_t STATE__getIndexCurrentState(STATE_t * const me)
  58:asw/statemachine.c **** {
  28              		.loc 1 58 0
  29              		.cfi_startproc
  30              		@ args = 0, pretend = 0, frame = 0
  31              		@ frame_needed = 0, uses_anonymous_args = 0
  32              		@ link register save eliminated.
  33              	.LVL0:
  34 0000 10B4     		push	{r4}
  35              		.cfi_def_cfa_offset 4
  36              		.cfi_offset 4, -4
  37              	.LVL1:
  38              	.LBB2:
  59:asw/statemachine.c ****     
  60:asw/statemachine.c ****     sint16_t result = INVALIDINDEX; //error
  61:asw/statemachine.c ****     
  62:asw/statemachine.c ****     for (uint16_t i = 0; i < me->m_transitionTableSize; i++)
  39              		.loc 1 62 0
  40 0002 0023     		movs	r3, #0
  41 0004 0BE0     		b	.L2
  42              	.LVL2:
  43              	.L5:
  63:asw/statemachine.c ****     {
  64:asw/statemachine.c ****         if ((*me->m_transitionTable)[i].fromState == me->m_state)
  44              		.loc 1 64 0
  45 0006 0468     		ldr	r4, [r0]
  46 0008 03EB4301 		add	r1, r3, r3, lsl #1
  47 000c 8A00     		lsls	r2, r1, #2
  48 000e A15A     		ldrh	r1, [r4, r2]
  49 0010 C289     		ldrh	r2, [r0, #14]
  50 0012 9142     		cmp	r1, r2
ARM GAS  C:\Users\vboxuser\AppData\Local\Temp\ccUffjqi.s 			page 3


  51 0014 01D1     		bne	.L3
  65:asw/statemachine.c ****         {
  66:asw/statemachine.c ****             return i;
  52              		.loc 1 66 0
  53 0016 18B2     		sxth	r0, r3
  54              	.LVL3:
  55 0018 06E0     		b	.L4
  56              	.LVL4:
  57              	.L3:
  62:asw/statemachine.c ****     {
  58              		.loc 1 62 0 discriminator 2
  59 001a 0133     		adds	r3, r3, #1
  60              	.LVL5:
  61 001c 9BB2     		uxth	r3, r3
  62              	.LVL6:
  63              	.L2:
  62:asw/statemachine.c ****     {
  64              		.loc 1 62 0 is_stmt 0 discriminator 1
  65 001e 8288     		ldrh	r2, [r0, #4]
  66 0020 9342     		cmp	r3, r2
  67 0022 F0D3     		bcc	.L5
  68              	.LBE2:
  67:asw/statemachine.c ****         }
  68:asw/statemachine.c ****     }
  69:asw/statemachine.c ****     
  70:asw/statemachine.c ****     return result;
  69              		.loc 1 70 0 is_stmt 1
  70 0024 4FF0FF30 		mov	r0, #-1
  71              	.LVL7:
  72              	.L4:
  71:asw/statemachine.c **** }
  73              		.loc 1 71 0
  74 0028 10BC     		pop	{r4}
  75              		.cfi_restore 4
  76              		.cfi_def_cfa_offset 0
  77 002a 7047     		bx	lr
  78              		.cfi_endproc
  79              	.LFE114:
  80              		.size	STATE__getIndexCurrentState, .-STATE__getIndexCurrentState
  81              		.section	.text.STATE_initState,"ax",%progbits
  82              		.align	2
  83              		.global	STATE_initState
  84              		.thumb
  85              		.thumb_func
  86              		.type	STATE_initState, %function
  87              	STATE_initState:
  88              	.LFB115:
  72:asw/statemachine.c **** 
  73:asw/statemachine.c **** /**
  74:asw/statemachine.c ****  * This function will initialise the state machine and process any state actions of the initial sta
  75:asw/statemachine.c ****  * The state machine is implemented as a generic object, Several instances and configurations are s
  76:asw/statemachine.c ****  * \param STATE_t * const me            : IN - Pointer to the state machine object
  77:asw/statemachine.c ****  * \return RC_SUCCESS or error
  78:asw/statemachine.c ****  */
  79:asw/statemachine.c **** RC_t STATE_initState(STATE_t * const me)
  80:asw/statemachine.c **** {
  89              		.loc 1 80 0
ARM GAS  C:\Users\vboxuser\AppData\Local\Temp\ccUffjqi.s 			page 4


  90              		.cfi_startproc
  91              		@ args = 0, pretend = 0, frame = 0
  92              		@ frame_needed = 0, uses_anonymous_args = 0
  93              	.LVL8:
  94 0000 38B5     		push	{r3, r4, r5, lr}
  95              		.cfi_def_cfa_offset 16
  96              		.cfi_offset 3, -16
  97              		.cfi_offset 4, -12
  98              		.cfi_offset 5, -8
  99              		.cfi_offset 14, -4
 100              	.LVL9:
  81:asw/statemachine.c ****     
  82:asw/statemachine.c ****     STATE_ActionPtr_t acEntry = 0;
  83:asw/statemachine.c ****     
  84:asw/statemachine.c ****     me->m_state = 0;
 101              		.loc 1 84 0
 102 0002 0023     		movs	r3, #0
 103 0004 C381     		strh	r3, [r0, #14]	@ movhi
  85:asw/statemachine.c ****     
  86:asw/statemachine.c ****     //Check if entry actios are present in the init state
  87:asw/statemachine.c ****     if (0 != me->m_actionTable)
 104              		.loc 1 87 0
 105 0006 8368     		ldr	r3, [r0, #8]
 106 0008 83B9     		cbnz	r3, .L12
 107              	.LBB3:
 108 000a 14E0     		b	.L9
 109              	.LVL10:
 110              	.L11:
  88:asw/statemachine.c ****     {
  89:asw/statemachine.c ****         for (uint16_t j = 0; j < me->m_actionTableSize; j++)
  90:asw/statemachine.c ****         {
  91:asw/statemachine.c **** 
  92:asw/statemachine.c ****             if (0 == (*me->m_actionTable)[j].state)
 111              		.loc 1 92 0
 112 000c A968     		ldr	r1, [r5, #8]
 113 000e 04EB4402 		add	r2, r4, r4, lsl #1
 114 0012 9300     		lsls	r3, r2, #2
 115 0014 CB5A     		ldrh	r3, [r1, r3]
 116 0016 33B9     		cbnz	r3, .L10
  93:asw/statemachine.c ****             {
  94:asw/statemachine.c ****                 acEntry = (*me->m_actionTable)[j].actionEntry;
 117              		.loc 1 94 0
 118 0018 04EB4402 		add	r2, r4, r4, lsl #1
 119 001c 9300     		lsls	r3, r2, #2
 120 001e 0B44     		add	r3, r3, r1
 121 0020 5B68     		ldr	r3, [r3, #4]
 122              	.LVL11:
  95:asw/statemachine.c ****                 if (0 != acEntry) acEntry();
 123              		.loc 1 95 0
 124 0022 03B1     		cbz	r3, .L10
 125              		.loc 1 95 0 is_stmt 0 discriminator 1
 126 0024 9847     		blx	r3
 127              	.LVL12:
 128              	.L10:
  89:asw/statemachine.c ****         {
 129              		.loc 1 89 0 is_stmt 1 discriminator 2
 130 0026 0134     		adds	r4, r4, #1
ARM GAS  C:\Users\vboxuser\AppData\Local\Temp\ccUffjqi.s 			page 5


 131              	.LVL13:
 132 0028 A4B2     		uxth	r4, r4
 133              	.LVL14:
 134 002a 01E0     		b	.L8
 135              	.LVL15:
 136              	.L12:
 137 002c 0546     		mov	r5, r0
 138              	.LBE3:
 139 002e 0024     		movs	r4, #0
 140              	.LVL16:
 141              	.L8:
 142              	.LBB4:
  89:asw/statemachine.c ****         {
 143              		.loc 1 89 0 is_stmt 0 discriminator 1
 144 0030 AB89     		ldrh	r3, [r5, #12]
 145 0032 9C42     		cmp	r4, r3
 146 0034 EAD3     		bcc	.L11
 147              	.LVL17:
 148              	.L9:
 149              	.LBE4:
  96:asw/statemachine.c ****             }
  97:asw/statemachine.c ****         }
  98:asw/statemachine.c ****     }
  99:asw/statemachine.c ****     return RC_SUCCESS;
 100:asw/statemachine.c **** }
 150              		.loc 1 100 0 is_stmt 1
 151 0036 0020     		movs	r0, #0
 152 0038 38BD     		pop	{r3, r4, r5, pc}
 153              		.cfi_endproc
 154              	.LFE115:
 155              		.size	STATE_initState, .-STATE_initState
 156 003a 00BF     		.section	.text.STATE_processEvent,"ax",%progbits
 157              		.align	2
 158              		.global	STATE_processEvent
 159              		.thumb
 160              		.thumb_func
 161              		.type	STATE_processEvent, %function
 162              	STATE_processEvent:
 163              	.LFB116:
 101:asw/statemachine.c **** 
 102:asw/statemachine.c **** /**
 103:asw/statemachine.c ****  * This function will process the event with the defined state machine
 104:asw/statemachine.c ****  * The state machine is implemented as a generic object, Several instances and configurations are s
 105:asw/statemachine.c ****  * \param STATE_t * const me            : IN/OUT - Pointer to the state machine object
 106:asw/statemachine.c ****  * \param uint16_t      ev              : IN - Event to be processed
 107:asw/statemachine.c ****  * \return RC_SUCCESS or error
 108:asw/statemachine.c ****  */
 109:asw/statemachine.c **** RC_t STATE_processEvent(STATE_t * const me,
 110:asw/statemachine.c ****                         uint16_t ev)
 111:asw/statemachine.c **** {
 164              		.loc 1 111 0
 165              		.cfi_startproc
 166              		@ args = 0, pretend = 0, frame = 0
 167              		@ frame_needed = 0, uses_anonymous_args = 0
 168              	.LVL18:
 169 0000 2DE9F047 		push	{r4, r5, r6, r7, r8, r9, r10, lr}
 170              		.cfi_def_cfa_offset 32
ARM GAS  C:\Users\vboxuser\AppData\Local\Temp\ccUffjqi.s 			page 6


 171              		.cfi_offset 4, -32
 172              		.cfi_offset 5, -28
 173              		.cfi_offset 6, -24
 174              		.cfi_offset 7, -20
 175              		.cfi_offset 8, -16
 176              		.cfi_offset 9, -12
 177              		.cfi_offset 10, -8
 178              		.cfi_offset 14, -4
 179 0004 8146     		mov	r9, r0
 180 0006 8846     		mov	r8, r1
 181              	.LVL19:
 112:asw/statemachine.c ****     STATE_GuardPtr_t guard = 0;
 113:asw/statemachine.c ****     STATE_ActionPtr_t acTransition = 0;
 114:asw/statemachine.c ****     STATE_ActionPtr_t acEntry = 0;
 115:asw/statemachine.c ****     STATE_ActionPtr_t acExit = 0;
 116:asw/statemachine.c ****     
 117:asw/statemachine.c ****     
 118:asw/statemachine.c ****     //Read the state from the watchdog object;
 119:asw/statemachine.c ****     uint16_t currentState = me->m_state;
 182              		.loc 1 119 0
 183 0008 B0F80EA0 		ldrh	r10, [r0, #14]
 184              	.LVL20:
 120:asw/statemachine.c ****     uint16_t toState = currentState; //Just in case
 121:asw/statemachine.c ****     
 122:asw/statemachine.c ****     //Calculate the table index of the outer table
 123:asw/statemachine.c **** 
 124:asw/statemachine.c ****     sint16_t index = STATE__getIndexCurrentState(me);
 185              		.loc 1 124 0
 186 000c FFF7FEFF 		bl	STATE__getIndexCurrentState
 187              	.LVL21:
 125:asw/statemachine.c ****     
 126:asw/statemachine.c ****     //This should never happen
 127:asw/statemachine.c ****     if (INVALIDINDEX == index)
 188              		.loc 1 127 0
 189 0010 B0F1FF3F 		cmp	r0, #-1
 190 0014 6FD0     		beq	.L30
 128:asw/statemachine.c ****     {
 129:asw/statemachine.c ****         return RC_ERROR_BAD_PARAM;
 130:asw/statemachine.c ****     }
 131:asw/statemachine.c ****     
 132:asw/statemachine.c ****     STATE_stateInnerTransitionTable_t const* const pInnerTable = (*me->m_transitionTable)[index].pI
 191              		.loc 1 132 0
 192 0016 D9F80010 		ldr	r1, [r9]
 193 001a 00EB4002 		add	r2, r0, r0, lsl #1
 194 001e 9300     		lsls	r3, r2, #2
 195 0020 1A46     		mov	r2, r3
 196 0022 0B44     		add	r3, r3, r1
 197 0024 5D68     		ldr	r5, [r3, #4]
 198              	.LVL22:
 133:asw/statemachine.c **** 	
 134:asw/statemachine.c ****     uint16_t innerTableSize = 0;
 135:asw/statemachine.c **** 	if (0 != pInnerTable)
 199              		.loc 1 135 0
 200 0026 1DB1     		cbz	r5, .L31
 136:asw/statemachine.c **** 	{
 137:asw/statemachine.c **** 		innerTableSize = (*me->m_transitionTable)[index].size;
 201              		.loc 1 137 0
ARM GAS  C:\Users\vboxuser\AppData\Local\Temp\ccUffjqi.s 			page 7


 202 0028 1346     		mov	r3, r2
 203 002a 0B44     		add	r3, r3, r1
 204 002c 1E89     		ldrh	r6, [r3, #8]
 205              	.LVL23:
 206 002e 00E0     		b	.L16
 207              	.LVL24:
 208              	.L31:
 134:asw/statemachine.c **** 	if (0 != pInnerTable)
 209              		.loc 1 134 0
 210 0030 0026     		movs	r6, #0
 211              	.LVL25:
 212              	.L16:
 138:asw/statemachine.c **** 	}
 139:asw/statemachine.c ****     
 140:asw/statemachine.c ****     if (0 == pInnerTable || 0 == innerTableSize)
 213              		.loc 1 140 0
 214 0032 002D     		cmp	r5, #0
 215 0034 63D0     		beq	.L32
 216              		.loc 1 140 0 is_stmt 0 discriminator 1
 217 0036 002E     		cmp	r6, #0
 218 0038 65D0     		beq	.L33
 219 003a 0024     		movs	r4, #0
 220 003c 56E0     		b	.L17
 221              	.LVL26:
 222              	.L29:
 223              	.LBB5:
 141:asw/statemachine.c ****     {
 142:asw/statemachine.c ****         //No transitions in this state
 143:asw/statemachine.c ****         return RC_ERROR_INVALID_STATE;
 144:asw/statemachine.c ****     }
 145:asw/statemachine.c ****     
 146:asw/statemachine.c ****     //Iterate through the inner table and find correct transition
 147:asw/statemachine.c ****     for (uint16_t i = 0; i < innerTableSize; i++)
 148:asw/statemachine.c ****     {
 149:asw/statemachine.c ****         // Find correct event transition
 150:asw/statemachine.c ****         if ((*pInnerTable)[i].event == ev)
 224              		.loc 1 150 0 is_stmt 1
 225 003e 2746     		mov	r7, r4
 226 0040 04EB4402 		add	r2, r4, r4, lsl #1
 227 0044 9300     		lsls	r3, r2, #2
 228 0046 EB5A     		ldrh	r3, [r5, r3]
 229 0048 4345     		cmp	r3, r8
 230 004a 4DD1     		bne	.L18
 151:asw/statemachine.c ****         {
 152:asw/statemachine.c ****             //Transition found, let's check the guard
 153:asw/statemachine.c ****             guard = (*pInnerTable)[i].guard;
 231              		.loc 1 153 0
 232 004c 04EB4402 		add	r2, r4, r4, lsl #1
 233 0050 9300     		lsls	r3, r2, #2
 234 0052 2B44     		add	r3, r3, r5
 235 0054 5B68     		ldr	r3, [r3, #4]
 236              	.LVL27:
 154:asw/statemachine.c ****             
 155:asw/statemachine.c ****             if (0 == guard || TRUE == guard())
 237              		.loc 1 155 0
 238 0056 13B1     		cbz	r3, .L19
 239              		.loc 1 155 0 is_stmt 0 discriminator 1
ARM GAS  C:\Users\vboxuser\AppData\Local\Temp\ccUffjqi.s 			page 8


 240 0058 9847     		blx	r3
 241              	.LVL28:
 242 005a 0128     		cmp	r0, #1
 243 005c 44D1     		bne	.L18
 244              	.L19:
 156:asw/statemachine.c ****             {
 157:asw/statemachine.c ****                 //Transition is valid
 158:asw/statemachine.c ****                 acTransition = (*pInnerTable)[i].actionTransition;
 245              		.loc 1 158 0 is_stmt 1
 246 005e 7A00     		lsls	r2, r7, #1
 247 0060 D119     		adds	r1, r2, r7
 248 0062 8B00     		lsls	r3, r1, #2
 249 0064 1946     		mov	r1, r3
 250 0066 2B44     		add	r3, r3, r5
 251 0068 9E68     		ldr	r6, [r3, #8]
 252              	.LVL29:
 159:asw/statemachine.c ****                 toState = (*pInnerTable)[i].toState;
 253              		.loc 1 159 0
 254 006a 0D44     		add	r5, r5, r1
 255              	.LVL30:
 256 006c 6D88     		ldrh	r5, [r5, #2]
 257              	.LVL31:
 160:asw/statemachine.c ****                 
 161:asw/statemachine.c ****                 //Now lets find exit actions. Note: their might be more than one
 162:asw/statemachine.c ****                 if (0 != me->m_actionTable)
 258              		.loc 1 162 0
 259 006e D9F80830 		ldr	r3, [r9, #8]
 260 0072 93B9     		cbnz	r3, .L34
 261              	.LBB6:
 262 0074 16E0     		b	.L21
 263              	.LVL32:
 264              	.L23:
 163:asw/statemachine.c ****                 {
 164:asw/statemachine.c ****                     for (uint16_t j = 0; j < me->m_actionTableSize; j++)
 165:asw/statemachine.c ****                     {
 166:asw/statemachine.c ****                         if (currentState == (*me->m_actionTable)[j].state)
 265              		.loc 1 166 0
 266 0076 D9F80810 		ldr	r1, [r9, #8]
 267 007a 04EB4402 		add	r2, r4, r4, lsl #1
 268 007e 9300     		lsls	r3, r2, #2
 269 0080 CB5A     		ldrh	r3, [r1, r3]
 270 0082 9A45     		cmp	r10, r3
 271 0084 06D1     		bne	.L22
 167:asw/statemachine.c ****                         {
 168:asw/statemachine.c ****                             acExit = (*me->m_actionTable)[j].actionExit;
 272              		.loc 1 168 0
 273 0086 04EB4402 		add	r2, r4, r4, lsl #1
 274 008a 9300     		lsls	r3, r2, #2
 275 008c 1944     		add	r1, r1, r3
 276 008e 8B68     		ldr	r3, [r1, #8]
 277              	.LVL33:
 169:asw/statemachine.c ****                             if (0 != acExit) acExit();
 278              		.loc 1 169 0
 279 0090 03B1     		cbz	r3, .L22
 280              		.loc 1 169 0 is_stmt 0 discriminator 1
 281 0092 9847     		blx	r3
 282              	.LVL34:
ARM GAS  C:\Users\vboxuser\AppData\Local\Temp\ccUffjqi.s 			page 9


 283              	.L22:
 164:asw/statemachine.c ****                     {
 284              		.loc 1 164 0 is_stmt 1 discriminator 2
 285 0094 0134     		adds	r4, r4, #1
 286              	.LVL35:
 287 0096 A4B2     		uxth	r4, r4
 288              	.LVL36:
 289 0098 00E0     		b	.L20
 290              	.LVL37:
 291              	.L34:
 292              	.LBE6:
 293 009a 0024     		movs	r4, #0
 294              	.LVL38:
 295              	.L20:
 296              	.LBB7:
 164:asw/statemachine.c ****                     {
 297              		.loc 1 164 0 is_stmt 0 discriminator 1
 298 009c B9F80C30 		ldrh	r3, [r9, #12]
 299 00a0 9C42     		cmp	r4, r3
 300 00a2 E8D3     		bcc	.L23
 301              	.LVL39:
 302              	.L21:
 303              	.LBE7:
 170:asw/statemachine.c ****                         }
 171:asw/statemachine.c ****                     }
 172:asw/statemachine.c ****                 }
 173:asw/statemachine.c **** 
 174:asw/statemachine.c ****                 //Lets call the transition action
 175:asw/statemachine.c ****                 if (0 != acTransition) acTransition();
 304              		.loc 1 175 0 is_stmt 1
 305 00a4 06B1     		cbz	r6, .L24
 306              		.loc 1 175 0 is_stmt 0 discriminator 1
 307 00a6 B047     		blx	r6
 308              	.LVL40:
 309              	.L24:
 176:asw/statemachine.c ****                 
 177:asw/statemachine.c ****                 //Now lets find the entry actions. Note: their might be more than one
 178:asw/statemachine.c ****                 if (0 != me->m_actionTable)
 310              		.loc 1 178 0 is_stmt 1
 311 00a8 D9F80830 		ldr	r3, [r9, #8]
 312 00ac 93B9     		cbnz	r3, .L35
 313              	.LBB8:
 314 00ae 16E0     		b	.L26
 315              	.LVL41:
 316              	.L28:
 179:asw/statemachine.c ****                 {
 180:asw/statemachine.c ****                     for (uint16_t j = 0; j < me->m_actionTableSize; j++)
 181:asw/statemachine.c ****                     {
 182:asw/statemachine.c **** 
 183:asw/statemachine.c ****                         if (toState == (*me->m_actionTable)[j].state)
 317              		.loc 1 183 0
 318 00b0 D9F80810 		ldr	r1, [r9, #8]
 319 00b4 04EB4402 		add	r2, r4, r4, lsl #1
 320 00b8 9300     		lsls	r3, r2, #2
 321 00ba CB5A     		ldrh	r3, [r1, r3]
 322 00bc 9D42     		cmp	r5, r3
 323 00be 06D1     		bne	.L27
ARM GAS  C:\Users\vboxuser\AppData\Local\Temp\ccUffjqi.s 			page 10


 184:asw/statemachine.c ****                         {
 185:asw/statemachine.c ****                             acEntry = (*me->m_actionTable)[j].actionEntry;
 324              		.loc 1 185 0
 325 00c0 04EB4402 		add	r2, r4, r4, lsl #1
 326 00c4 9300     		lsls	r3, r2, #2
 327 00c6 1944     		add	r1, r1, r3
 328 00c8 4B68     		ldr	r3, [r1, #4]
 329              	.LVL42:
 186:asw/statemachine.c ****                             if (0 != acEntry) acEntry();
 330              		.loc 1 186 0
 331 00ca 03B1     		cbz	r3, .L27
 332              		.loc 1 186 0 is_stmt 0 discriminator 1
 333 00cc 9847     		blx	r3
 334              	.LVL43:
 335              	.L27:
 180:asw/statemachine.c ****                     {
 336              		.loc 1 180 0 is_stmt 1 discriminator 2
 337 00ce 0134     		adds	r4, r4, #1
 338              	.LVL44:
 339 00d0 A4B2     		uxth	r4, r4
 340              	.LVL45:
 341 00d2 00E0     		b	.L25
 342              	.LVL46:
 343              	.L35:
 344              	.LBE8:
 345 00d4 0024     		movs	r4, #0
 346              	.LVL47:
 347              	.L25:
 348              	.LBB9:
 180:asw/statemachine.c ****                     {
 349              		.loc 1 180 0 is_stmt 0 discriminator 1
 350 00d6 B9F80C30 		ldrh	r3, [r9, #12]
 351 00da 9C42     		cmp	r4, r3
 352 00dc E8D3     		bcc	.L28
 353              	.LVL48:
 354              	.L26:
 355              	.LBE9:
 187:asw/statemachine.c ****                         }
 188:asw/statemachine.c ****                     }
 189:asw/statemachine.c ****                 }
 190:asw/statemachine.c ****                 
 191:asw/statemachine.c ****                 // Set current state to next state
 192:asw/statemachine.c ****                 me->m_state = toState;
 356              		.loc 1 192 0 is_stmt 1
 357 00de A9F80E50 		strh	r5, [r9, #14]	@ movhi
 358              	.LBE5:
 193:asw/statemachine.c ****                 
 194:asw/statemachine.c ****                 //Only one transition will be fired
 195:asw/statemachine.c ****                 break;
 196:asw/statemachine.c ****             }
 197:asw/statemachine.c ****         }
 198:asw/statemachine.c ****     }
 199:asw/statemachine.c **** 
 200:asw/statemachine.c ****     return RC_SUCCESS;
 359              		.loc 1 200 0
 360 00e2 0020     		movs	r0, #0
 361              	.LBB10:
ARM GAS  C:\Users\vboxuser\AppData\Local\Temp\ccUffjqi.s 			page 11


 195:asw/statemachine.c ****             }
 362              		.loc 1 195 0
 363 00e4 BDE8F087 		pop	{r4, r5, r6, r7, r8, r9, r10, pc}
 364              	.LVL49:
 365              	.L18:
 147:asw/statemachine.c ****     {
 366              		.loc 1 147 0 discriminator 2
 367 00e8 0134     		adds	r4, r4, #1
 368              	.LVL50:
 369 00ea A4B2     		uxth	r4, r4
 370              	.LVL51:
 371              	.L17:
 147:asw/statemachine.c ****     {
 372              		.loc 1 147 0 is_stmt 0 discriminator 1
 373 00ec A642     		cmp	r6, r4
 374 00ee A6D8     		bhi	.L29
 375              	.LBE10:
 376              		.loc 1 200 0 is_stmt 1
 377 00f0 0020     		movs	r0, #0
 378              	.LBB11:
 379 00f2 BDE8F087 		pop	{r4, r5, r6, r7, r8, r9, r10, pc}
 380              	.LVL52:
 381              	.L30:
 382              	.LBE11:
 129:asw/statemachine.c ****     }
 383              		.loc 1 129 0
 384 00f6 6FF01300 		mvn	r0, #19
 385              	.LVL53:
 386 00fa BDE8F087 		pop	{r4, r5, r6, r7, r8, r9, r10, pc}
 387              	.LVL54:
 388              	.L32:
 143:asw/statemachine.c ****     }
 389              		.loc 1 143 0
 390 00fe 6FF01600 		mvn	r0, #22
 391              	.LVL55:
 392 0102 BDE8F087 		pop	{r4, r5, r6, r7, r8, r9, r10, pc}
 393              	.LVL56:
 394              	.L33:
 395 0106 6FF01600 		mvn	r0, #22
 396              	.LVL57:
 201:asw/statemachine.c **** }
 397              		.loc 1 201 0
 398 010a BDE8F087 		pop	{r4, r5, r6, r7, r8, r9, r10, pc}
 399              		.cfi_endproc
 400              	.LFE116:
 401              		.size	STATE_processEvent, .-STATE_processEvent
 402 010e 00BF     		.section	.text.STATE_getCurrentState,"ax",%progbits
 403              		.align	2
 404              		.global	STATE_getCurrentState
 405              		.thumb
 406              		.thumb_func
 407              		.type	STATE_getCurrentState, %function
 408              	STATE_getCurrentState:
 409              	.LFB117:
 202:asw/statemachine.c **** 
 203:asw/statemachine.c **** 
 204:asw/statemachine.c **** /**
ARM GAS  C:\Users\vboxuser\AppData\Local\Temp\ccUffjqi.s 			page 12


 205:asw/statemachine.c ****  * This function will return the current state in case it is required for additional application lo
 206:asw/statemachine.c ****  * \param STATE_t * const me            : IN - Pointer to the state machine object
 207:asw/statemachine.c ****  * \return Current State of the State machine
 208:asw/statemachine.c ****  */
 209:asw/statemachine.c **** uint16_t STATE_getCurrentState(STATE_t * const me)
 210:asw/statemachine.c **** {
 410              		.loc 1 210 0
 411              		.cfi_startproc
 412              		@ args = 0, pretend = 0, frame = 0
 413              		@ frame_needed = 0, uses_anonymous_args = 0
 414              		@ link register save eliminated.
 415              	.LVL58:
 211:asw/statemachine.c ****     return me->m_state;
 212:asw/statemachine.c **** }
 416              		.loc 1 212 0
 417 0000 C089     		ldrh	r0, [r0, #14]
 418              	.LVL59:
 419 0002 7047     		bx	lr
 420              		.cfi_endproc
 421              	.LFE117:
 422              		.size	STATE_getCurrentState, .-STATE_getCurrentState
 423              		.text
 424              	.Letext0:
 425              		.file 2 ".\\bsw/global.h"
 426              		.file 3 "asw\\statemachine.h"
 427              		.file 4 "c:\\program files (x86)\\cypress\\psoc creator\\4.4\\psoc creator\\import\\gnu\\arm\\5.4.
 428              		.file 5 "c:\\program files (x86)\\cypress\\psoc creator\\4.4\\psoc creator\\import\\gnu\\arm\\5.4.
 429              		.file 6 "Generated_Source\\PSoC5/ErikaOS_1_common_ee_types.inc"
 430              		.file 7 "Generated_Source\\PSoC5/ErikaOS_1_cortex_mx_ee_cpu.inc"
 431              		.file 8 "Generated_Source\\PSoC5/ErikaOS_1_ee_oo_intfunc.inc"
 432              		.file 9 "Generated_Source\\PSoC5/ErikaOS_1_cortex_mx_ee_context.inc"
 433              		.file 10 "Generated_Source\\PSoC5/ErikaOS_1_common_ee_primitives.inc"
 434              		.file 11 "Generated_Source\\PSoC5/core_cm3.h"