ARM GAS  C:\Users\vboxuser\AppData\Local\Temp\cc6N4dYh.s 			page 1


   1              		.syntax unified
   2              		.cpu cortex-m3
   3              		.fpu softvfp
   4              		.eabi_attribute 20, 1
   5              		.eabi_attribute 21, 1
   6              		.eabi_attribute 23, 3
   7              		.eabi_attribute 24, 1
   8              		.eabi_attribute 25, 1
   9              		.eabi_attribute 26, 1
  10              		.eabi_attribute 30, 1
  11              		.eabi_attribute 34, 1
  12              		.eabi_attribute 18, 4
  13              		.thumb
  14              		.syntax unified
  15              		.file	"swc_clock.c"
  16              		.text
  17              	.Ltext0:
  18              		.cfi_sections	.debug_frame
  19              		.section	.text.CLOCK_input_run,"ax",%progbits
  20              		.align	2
  21              		.global	CLOCK_input_run
  22              		.thumb
  23              		.thumb_func
  24              		.type	CLOCK_input_run, %function
  25              	CLOCK_input_run:
  26              	.LFB136:
  27              		.file 1 "asw\\swc_clock.c"
   1:asw/swc_clock.c **** /*
   2:asw/swc_clock.c ****  * Filename: swc_clock.c
   3:asw/swc_clock.c ****  *
   4:asw/swc_clock.c ****  * Author: Autogenerated by H-DA RTE Generator, (c) Prof. Fromm
   5:asw/swc_clock.c ****  *
   6:asw/swc_clock.c ****  * description: Electronic Clock SWC
   7:asw/swc_clock.c ****  * name: swc_Clock
   8:asw/swc_clock.c ****  * shortname: Clock
   9:asw/swc_clock.c ****  *
  10:asw/swc_clock.c ****  */
  11:asw/swc_clock.c **** 
  12:asw/swc_clock.c **** #include "project.h"
  13:asw/swc_clock.c **** #include "global.h"
  14:asw/swc_clock.c **** #include "rte.h"
  15:asw/swc_clock.c **** #include "rte_types.h"
  16:asw/swc_clock.c **** #include "swc_clock.h"
  17:asw/swc_clock.c **** 
  18:asw/swc_clock.c **** 
  19:asw/swc_clock.c **** 
  20:asw/swc_clock.c **** /* USER CODE START SWC_CLOCK_INCLUDE */
  21:asw/swc_clock.c **** 
  22:asw/swc_clock.c **** /* USER CODE END SWC_CLOCK_INCLUDE */
  23:asw/swc_clock.c **** 
  24:asw/swc_clock.c **** #include "tft.h"
  25:asw/swc_clock.c **** #include "logging.h"
  26:asw/swc_clock.c **** #include "sp_common.h"
  27:asw/swc_clock.c **** 
  28:asw/swc_clock.c **** /* USER CODE START SWC_CLOCK_USERDEFINITIONS */
  29:asw/swc_clock.c **** 
  30:asw/swc_clock.c **** /* USER CODE END SWC_CLOCK_USERDEFINITIONS */
ARM GAS  C:\Users\vboxuser\AppData\Local\Temp\cc6N4dYh.s 			page 2


  31:asw/swc_clock.c **** 
  32:asw/swc_clock.c **** 
  33:asw/swc_clock.c **** 
  34:asw/swc_clock.c **** /*
  35:asw/swc_clock.c ****  * component: swc_Clock
  36:asw/swc_clock.c ****  * cycletime: 50
  37:asw/swc_clock.c ****  * description: Runnable handle button timer 
  38:asw/swc_clock.c ****  * events: 
  39:asw/swc_clock.c ****  * name: CLOCK_input_run
  40:asw/swc_clock.c ****  * shortname: input
  41:asw/swc_clock.c ****  * signalIN: 
  42:asw/swc_clock.c ****  * signalOUT: so_event
  43:asw/swc_clock.c ****  * task: tsk_io
  44:asw/swc_clock.c ****  */
  45:asw/swc_clock.c **** void CLOCK_input_run(RTE_event ev){
  28              		.loc 1 45 0
  29              		.cfi_startproc
  30              		@ args = 0, pretend = 0, frame = 168
  31              		@ frame_needed = 0, uses_anonymous_args = 0
  32              	.LVL0:
  33 0000 30B5     		push	{r4, r5, lr}
  34              		.cfi_def_cfa_offset 12
  35              		.cfi_offset 4, -12
  36              		.cfi_offset 5, -8
  37              		.cfi_offset 14, -4
  38 0002 ABB0     		sub	sp, sp, #172
  39              		.cfi_def_cfa_offset 184
  40              	.LVL1:
  46:asw/swc_clock.c **** 	
  47:asw/swc_clock.c **** 	/* USER CODE START CLOCK_input_run */
  48:asw/swc_clock.c ****     
  49:asw/swc_clock.c ****     
  50:asw/swc_clock.c ****     SC_EVENT_data_t eventData = RTE_SC_EVENT_get(&SO_EVENT_signal);
  51:asw/swc_clock.c ****     
  52:asw/swc_clock.c ****     static uint16_t leftButtonElapsed =0;
  53:asw/swc_clock.c ****     
  54:asw/swc_clock.c ****     
  55:asw/swc_clock.c ****     static uint16_t rightButtonElapsed =0;
  56:asw/swc_clock.c ****     
  57:asw/swc_clock.c ****     
  58:asw/swc_clock.c ****     static uint16_t timeElapsed =0;
  59:asw/swc_clock.c ****     static uint16_t shortEvent250msCount= 0;
  60:asw/swc_clock.c ****     
  61:asw/swc_clock.c ****     const uint16_t LONG_PRESS_THRESHOLD = 20; //(20 *50 =1000)
  62:asw/swc_clock.c ****     const uint16_t ELAPSED_250MS = 5; // (5 *50 250)
  63:asw/swc_clock.c ****     const uint16_t ONE_MIN_ELAPSED = 240; //(240 *50 =60000) <=> 240 250ms events
  64:asw/swc_clock.c ****     
  65:asw/swc_clock.c ****     // Event 1 Min / 250ms handling
  66:asw/swc_clock.c ****     
  67:asw/swc_clock.c ****     if (timeElapsed == ELAPSED_250MS){
  41              		.loc 1 67 0
  42 0004 A34B     		ldr	r3, .L39
  43 0006 1B88     		ldrh	r3, [r3]
  44 0008 052B     		cmp	r3, #5
  45 000a 32D1     		bne	.L2
  46              	.LBB43:
  68:asw/swc_clock.c ****         
ARM GAS  C:\Users\vboxuser\AppData\Local\Temp\cc6N4dYh.s 			page 3


  69:asw/swc_clock.c ****         shortEvent250msCount++;
  47              		.loc 1 69 0
  48 000c A14A     		ldr	r2, .L39
  49 000e 5388     		ldrh	r3, [r2, #2]
  50 0010 0133     		adds	r3, r3, #1
  51 0012 5380     		strh	r3, [r2, #2]	@ movhi
  52              	.LVL2:
  53              	.LBB44:
  54              	.LBB45:
  55              		.file 2 ".\\bsw\\rte/sc_event.h"
   1:.\bsw\rte/sc_event.h **** 
   2:.\bsw\rte/sc_event.h **** 
   3:.\bsw\rte/sc_event.h **** /**
   4:.\bsw\rte/sc_event.h ****  *  file    SC_EVENT_signal.h
   5:.\bsw\rte/sc_event.h ****  *
   6:.\bsw\rte/sc_event.h ****  *  brief   signal base class for signal sc_event
   7:.\bsw\rte/sc_event.h ****  *
   8:.\bsw\rte/sc_event.h ****  *  author  Autogenerated, Peter Fromm       <peter.fromm@h-da.de>
   9:.\bsw\rte/sc_event.h ****  *
  10:.\bsw\rte/sc_event.h ****  * description: Event signal for controlling our state machine
  11:.\bsw\rte/sc_event.h ****  * name: sc_event
  12:.\bsw\rte/sc_event.h ****  * shortname: event
  13:.\bsw\rte/sc_event.h ****  *
  14:.\bsw\rte/sc_event.h ****  */
  15:.\bsw\rte/sc_event.h **** 
  16:.\bsw\rte/sc_event.h **** 
  17:.\bsw\rte/sc_event.h **** 
  18:.\bsw\rte/sc_event.h **** #ifndef SC_EVENT_SIGNAL_H_INCLUDED
  19:.\bsw\rte/sc_event.h **** #define SC_EVENT_SIGNAL_H_INCLUDED
  20:.\bsw\rte/sc_event.h **** 
  21:.\bsw\rte/sc_event.h **** /*================================================[ public includes  ]=============================
  22:.\bsw\rte/sc_event.h **** #include "global.h"
  23:.\bsw\rte/sc_event.h **** #include "project.h"
  24:.\bsw\rte/sc_event.h **** #include "rte.h"
  25:.\bsw\rte/sc_event.h **** #include "rte_types.h"
  26:.\bsw\rte/sc_event.h **** 
  27:.\bsw\rte/sc_event.h **** #include "sc_event_type.h"
  28:.\bsw\rte/sc_event.h **** 
  29:.\bsw\rte/sc_event.h **** 
  30:.\bsw\rte/sc_event.h **** /**************************************************************************************************
  31:.\bsw\rte/sc_event.h **** /* The driver API block																						*/
  32:.\bsw\rte/sc_event.h **** /**************************************************************************************************
  33:.\bsw\rte/sc_event.h ****                                                                                                    
  34:.\bsw\rte/sc_event.h **** /**
  35:.\bsw\rte/sc_event.h ****  *  Definition of function types for driver interfaces.
  36:.\bsw\rte/sc_event.h ****  *  I-Port
  37:.\bsw\rte/sc_event.h ****  */
  38:.\bsw\rte/sc_event.h **** typedef RC_t (*SC_EVENT_driverIn_t)(SC_EVENT_data_t * const);
  39:.\bsw\rte/sc_event.h **** 
  40:.\bsw\rte/sc_event.h **** /**
  41:.\bsw\rte/sc_event.h ****  *  Definition of function types for driver interfaces.
  42:.\bsw\rte/sc_event.h ****  *  O-Port
  43:.\bsw\rte/sc_event.h ****  */
  44:.\bsw\rte/sc_event.h **** typedef RC_t (*SC_EVENT_driverOut_t)( const SC_EVENT_data_t * const);
  45:.\bsw\rte/sc_event.h **** 
  46:.\bsw\rte/sc_event.h **** 
  47:.\bsw\rte/sc_event.h **** /**************************************************************************************************
ARM GAS  C:\Users\vboxuser\AppData\Local\Temp\cc6N4dYh.s 			page 4


  48:.\bsw\rte/sc_event.h **** /* The signal configuration API block																				*/
  49:.\bsw\rte/sc_event.h **** /**************************************************************************************************
  50:.\bsw\rte/sc_event.h **** 
  51:.\bsw\rte/sc_event.h **** /**
  52:.\bsw\rte/sc_event.h ****  * Instances of the struct SC_EVENT_cfg_t represent the signal object configuration.
  53:.\bsw\rte/sc_event.h ****  */
  54:.\bsw\rte/sc_event.h **** struct SC_EVENT_cfg_s
  55:.\bsw\rte/sc_event.h **** {
  56:.\bsw\rte/sc_event.h ****     /**
  57:.\bsw\rte/sc_event.h ****      * Function pointer to the input driver
  58:.\bsw\rte/sc_event.h ****      */
  59:.\bsw\rte/sc_event.h ****     SC_EVENT_driverIn_t const inDriver;
  60:.\bsw\rte/sc_event.h **** 
  61:.\bsw\rte/sc_event.h ****     /**
  62:.\bsw\rte/sc_event.h ****      * Function pointer to the output driver table
  63:.\bsw\rte/sc_event.h ****      */
  64:.\bsw\rte/sc_event.h ****    SC_EVENT_driverOut_t const outDriver;
  65:.\bsw\rte/sc_event.h ****    
  66:.\bsw\rte/sc_event.h ****     /**
  67:.\bsw\rte/sc_event.h ****      * Event onUpdate
  68:.\bsw\rte/sc_event.h ****      */
  69:.\bsw\rte/sc_event.h ****     EventMaskType const evOnUpdate;
  70:.\bsw\rte/sc_event.h ****     
  71:.\bsw\rte/sc_event.h ****     
  72:.\bsw\rte/sc_event.h ****     /**
  73:.\bsw\rte/sc_event.h ****      * Event onError
  74:.\bsw\rte/sc_event.h ****      */
  75:.\bsw\rte/sc_event.h ****     EventMaskType const evOnError;
  76:.\bsw\rte/sc_event.h ****     
  77:.\bsw\rte/sc_event.h ****     /**
  78:.\bsw\rte/sc_event.h ****      * Task Count onUpdate
  79:.\bsw\rte/sc_event.h ****      */
  80:.\bsw\rte/sc_event.h ****     size_t const onUpdateTaskCount;
  81:.\bsw\rte/sc_event.h **** 
  82:.\bsw\rte/sc_event.h ****     /**
  83:.\bsw\rte/sc_event.h ****      * Task List onUpdate
  84:.\bsw\rte/sc_event.h ****      */
  85:.\bsw\rte/sc_event.h ****     TaskTypeArray* const onUpdateTasks;
  86:.\bsw\rte/sc_event.h ****     
  87:.\bsw\rte/sc_event.h ****     /**
  88:.\bsw\rte/sc_event.h ****      * Task Count onError
  89:.\bsw\rte/sc_event.h ****      */
  90:.\bsw\rte/sc_event.h ****     size_t const onErrorTaskCount;
  91:.\bsw\rte/sc_event.h **** 
  92:.\bsw\rte/sc_event.h ****     /**
  93:.\bsw\rte/sc_event.h ****      * Task List onError
  94:.\bsw\rte/sc_event.h ****      */
  95:.\bsw\rte/sc_event.h ****     TaskTypeArray* const onErrorTasks;
  96:.\bsw\rte/sc_event.h **** 	
  97:.\bsw\rte/sc_event.h **** 	
  98:.\bsw\rte/sc_event.h **** 	/**
  99:.\bsw\rte/sc_event.h **** 	 * Ressourse is active? We need an additional boolean as a ressource value 0 is valid.
 100:.\bsw\rte/sc_event.h **** 	 */
 101:.\bsw\rte/sc_event.h **** 	 boolean_t const resourceActive;
 102:.\bsw\rte/sc_event.h **** 	 
 103:.\bsw\rte/sc_event.h **** 	/**
 104:.\bsw\rte/sc_event.h **** 	 * Ressourse 
ARM GAS  C:\Users\vboxuser\AppData\Local\Temp\cc6N4dYh.s 			page 5


 105:.\bsw\rte/sc_event.h **** 	 */
 106:.\bsw\rte/sc_event.h **** 	 ResourceType const resource;
 107:.\bsw\rte/sc_event.h **** 
 108:.\bsw\rte/sc_event.h **** };                                                                                                 
 109:.\bsw\rte/sc_event.h **** typedef const struct SC_EVENT_cfg_s SC_EVENT_cfg_t;
 110:.\bsw\rte/sc_event.h ****                               
 111:.\bsw\rte/sc_event.h **** /**************************************************************************************************
 112:.\bsw\rte/sc_event.h **** /* The data interface block																							*/
 113:.\bsw\rte/sc_event.h **** /**************************************************************************************************
 114:.\bsw\rte/sc_event.h **** 
 115:.\bsw\rte/sc_event.h ****                                                                                                    
 116:.\bsw\rte/sc_event.h **** 							  
 117:.\bsw\rte/sc_event.h **** /**
 118:.\bsw\rte/sc_event.h ****  * Instances of the struct SC_EVENT_t represent the signal objects.
 119:.\bsw\rte/sc_event.h ****  * A signal object contains the current application value 'value' as well as relevant meta data.
 120:.\bsw\rte/sc_event.h ****  */
 121:.\bsw\rte/sc_event.h **** struct SC_EVENT_s
 122:.\bsw\rte/sc_event.h **** {                                                                                                  
 123:.\bsw\rte/sc_event.h **** 
 124:.\bsw\rte/sc_event.h **** 	/**
 125:.\bsw\rte/sc_event.h **** 	 * Data buffer for the application value
 126:.\bsw\rte/sc_event.h **** 	 */
 127:.\bsw\rte/sc_event.h ****     SC_EVENT_data_t value;
 128:.\bsw\rte/sc_event.h **** 
 129:.\bsw\rte/sc_event.h ****     /**
 130:.\bsw\rte/sc_event.h ****      * Current signal status
 131:.\bsw\rte/sc_event.h ****      */
 132:.\bsw\rte/sc_event.h ****     RTE_signalStatus_t status;
 133:.\bsw\rte/sc_event.h **** 
 134:.\bsw\rte/sc_event.h ****     /**
 135:.\bsw\rte/sc_event.h ****      * Current age of the signal (in calling cycles)
 136:.\bsw\rte/sc_event.h ****      */
 137:.\bsw\rte/sc_event.h ****     uint32_t age;
 138:.\bsw\rte/sc_event.h **** 
 139:.\bsw\rte/sc_event.h ****     /**
 140:.\bsw\rte/sc_event.h ****      * Pointer to the signal configuration
 141:.\bsw\rte/sc_event.h ****      */
 142:.\bsw\rte/sc_event.h **** 	const SC_EVENT_cfg_t * const    pSigCfg;
 143:.\bsw\rte/sc_event.h **** 
 144:.\bsw\rte/sc_event.h **** };                                                                                                 
 145:.\bsw\rte/sc_event.h **** typedef struct SC_EVENT_s SC_EVENT_t;
 146:.\bsw\rte/sc_event.h **** 
 147:.\bsw\rte/sc_event.h **** /**************************************************************************************************
 148:.\bsw\rte/sc_event.h **** /* Signal initialisation   																							*/
 149:.\bsw\rte/sc_event.h **** /**************************************************************************************************
 150:.\bsw\rte/sc_event.h **** 
 151:.\bsw\rte/sc_event.h **** /**
 152:.\bsw\rte/sc_event.h ****  * Initializes a signal instance with a passed init value.
 153:.\bsw\rte/sc_event.h ****  * Depending on the configured conversion or scaling function the raw_value will be calculated.
 154:.\bsw\rte/sc_event.h ****  * Signal status will change from RTE_SIGNALSTATUS_STARTUP to RTE_SIGNALSTATUS_INITIALIZED.
 155:.\bsw\rte/sc_event.h ****  *
 156:.\bsw\rte/sc_event.h ****  * @param  SC_EVENT_t * const signal: Pointer to the signal object which will be initialised
 157:.\bsw\rte/sc_event.h ****  * @return RC_t: standard return code, currently only RC_SUCCESS
 158:.\bsw\rte/sc_event.h ****  *
 159:.\bsw\rte/sc_event.h ****  **/
 160:.\bsw\rte/sc_event.h **** inline RC_t RTE_SC_EVENT_init( SC_EVENT_t * const signal )
 161:.\bsw\rte/sc_event.h **** {                                                                                                  
ARM GAS  C:\Users\vboxuser\AppData\Local\Temp\cc6N4dYh.s 			page 6


 162:.\bsw\rte/sc_event.h **** 
 163:.\bsw\rte/sc_event.h ****    RC_t ret = RC_SUCCESS;
 164:.\bsw\rte/sc_event.h **** 
 165:.\bsw\rte/sc_event.h ****    //Set value and raw value
 166:.\bsw\rte/sc_event.h ****    signal->value  = SC_EVENT_INIT_DATA;
 167:.\bsw\rte/sc_event.h ****    signal->age    = 0;
 168:.\bsw\rte/sc_event.h ****    signal->status = RTE_SIGNALSTATUS_INITIALIZED;
 169:.\bsw\rte/sc_event.h **** 
 170:.\bsw\rte/sc_event.h ****    return ret;
 171:.\bsw\rte/sc_event.h **** }
 172:.\bsw\rte/sc_event.h **** 
 173:.\bsw\rte/sc_event.h **** /**************************************************************************************************
 174:.\bsw\rte/sc_event.h **** /* Status and timeout control																						*/
 175:.\bsw\rte/sc_event.h **** /**************************************************************************************************
 176:.\bsw\rte/sc_event.h **** 
 177:.\bsw\rte/sc_event.h **** /**
 178:.\bsw\rte/sc_event.h ****  *  Returns the current signal status of the passed signal instance.
 179:.\bsw\rte/sc_event.h ****  *
 180:.\bsw\rte/sc_event.h ****  * @param  SC_EVENT_t * const signal: Pointer to the signal object
 181:.\bsw\rte/sc_event.h ****  * @return  sig_status_t: The current signal status
 182:.\bsw\rte/sc_event.h ****  *
 183:.\bsw\rte/sc_event.h ****  **/
 184:.\bsw\rte/sc_event.h **** inline RTE_signalStatus_t RTE_SC_EVENT_getStatus( const SC_EVENT_t * const signal )
 185:.\bsw\rte/sc_event.h **** {
 186:.\bsw\rte/sc_event.h ****    return signal->status;
 187:.\bsw\rte/sc_event.h **** }
 188:.\bsw\rte/sc_event.h **** 
 189:.\bsw\rte/sc_event.h **** 
 190:.\bsw\rte/sc_event.h **** /**
 191:.\bsw\rte/sc_event.h ****  *  Sets a new signal status of the passed signal instance by passing the new status.
 192:.\bsw\rte/sc_event.h ****  *
 193:.\bsw\rte/sc_event.h ****  * @param  SC_EVENT_t * const signal: Pointer to the signal object
 194:.\bsw\rte/sc_event.h ****  * @param  const sig_status_t status: New signal status
 195:.\bsw\rte/sc_event.h ****  * @return RC_t: standard return code, currently only RC_SUCCESS
 196:.\bsw\rte/sc_event.h ****  *
 197:.\bsw\rte/sc_event.h ****  */
 198:.\bsw\rte/sc_event.h **** inline RC_t RTE_SC_EVENT_setStatus( SC_EVENT_t * const signal, const RTE_signalStatus_t status )
 199:.\bsw\rte/sc_event.h **** {
 200:.\bsw\rte/sc_event.h ****    signal->status = status;
 201:.\bsw\rte/sc_event.h ****    size_t taskNum=0;
 202:.\bsw\rte/sc_event.h ****    
 203:.\bsw\rte/sc_event.h ****    //Fire error events in case of invalid state
 204:.\bsw\rte/sc_event.h ****    if (signal->status == RTE_SIGNALSTATUS_INVALID)
 205:.\bsw\rte/sc_event.h ****    {
 206:.\bsw\rte/sc_event.h **** 	    //Pointer to the Taskarray, containing the tasks receiving the onUpdate events
 207:.\bsw\rte/sc_event.h **** 		TaskTypeArray* pTaskArray = signal->pSigCfg->onErrorTasks;
 208:.\bsw\rte/sc_event.h **** 
 209:.\bsw\rte/sc_event.h **** 		if (0 != signal->pSigCfg->evOnError && NULL != pTaskArray){
 210:.\bsw\rte/sc_event.h **** 			for( taskNum=0 ; taskNum < signal->pSigCfg->onErrorTaskCount ;taskNum++){
 211:.\bsw\rte/sc_event.h **** 				TaskType task = (*pTaskArray)[taskNum];
 212:.\bsw\rte/sc_event.h **** 				SetEvent( task, signal->pSigCfg->evOnError);
 213:.\bsw\rte/sc_event.h **** 			}
 214:.\bsw\rte/sc_event.h **** 		}
 215:.\bsw\rte/sc_event.h ****    }
 216:.\bsw\rte/sc_event.h ****    
 217:.\bsw\rte/sc_event.h ****    return RC_SUCCESS;
 218:.\bsw\rte/sc_event.h **** }
ARM GAS  C:\Users\vboxuser\AppData\Local\Temp\cc6N4dYh.s 			page 7


 219:.\bsw\rte/sc_event.h **** 
 220:.\bsw\rte/sc_event.h **** 
 221:.\bsw\rte/sc_event.h **** /**
 222:.\bsw\rte/sc_event.h ****  * Returns the count of refreshing trials (refresh, set or set_raw) that failed.
 223:.\bsw\rte/sc_event.h ****  * Prerquisite: The signal is refreshed cyclically
 224:.\bsw\rte/sc_event.h ****  *
 225:.\bsw\rte/sc_event.h ****  * @param  SC_EVENT_t * const signal: Pointer to the signal object
 226:.\bsw\rte/sc_event.h ****  * @return uint32_t: Number of cycles since the signal has been updated for the last time
 227:.\bsw\rte/sc_event.h ****  */
 228:.\bsw\rte/sc_event.h **** inline uint32_t RTE_SC_EVENT_getAge( const SC_EVENT_t * const signal )
 229:.\bsw\rte/sc_event.h **** {
 230:.\bsw\rte/sc_event.h ****    return signal->age;
 231:.\bsw\rte/sc_event.h **** }
 232:.\bsw\rte/sc_event.h **** 
 233:.\bsw\rte/sc_event.h **** /**
 234:.\bsw\rte/sc_event.h ****  * Should be called by application or driver if no new value can be provided.
 235:.\bsw\rte/sc_event.h ****  * @param  SC_EVENT_t * const signal: Pointer to the signal object
 236:.\bsw\rte/sc_event.h ****  * @param uint32_t increment: incrementvalue, typically in [ms]
 237:.\bsw\rte/sc_event.h ****  * @return void
 238:.\bsw\rte/sc_event.h ****  */
 239:.\bsw\rte/sc_event.h **** inline void RTE_SC_EVENT_incAge(  SC_EVENT_t * const signal , uint32_t increment)
 240:.\bsw\rte/sc_event.h **** {
 241:.\bsw\rte/sc_event.h **** 	   //Hack....
 242:.\bsw\rte/sc_event.h **** 	   if ( 0xFFFF0000 > (signal->age + increment) )
 243:.\bsw\rte/sc_event.h **** 	   {
 244:.\bsw\rte/sc_event.h **** 	      signal->age += increment;
 245:.\bsw\rte/sc_event.h **** 	   }
 246:.\bsw\rte/sc_event.h **** }
 247:.\bsw\rte/sc_event.h **** 
 248:.\bsw\rte/sc_event.h **** 
 249:.\bsw\rte/sc_event.h **** /**************************************************************************************************
 250:.\bsw\rte/sc_event.h **** /* Application Data read/write Interface																			*/
 251:.\bsw\rte/sc_event.h **** /**************************************************************************************************
 252:.\bsw\rte/sc_event.h **** 
 253:.\bsw\rte/sc_event.h **** /**
 254:.\bsw\rte/sc_event.h ****  * Returns the current application value as pointer to the signal payload.
 255:.\bsw\rte/sc_event.h ****  * Careful: This is not threadsafe!!!
 256:.\bsw\rte/sc_event.h ****  *
 257:.\bsw\rte/sc_event.h ****  * @param  SC_EVENT_t * const signal: Pointer to the signal object
 258:.\bsw\rte/sc_event.h ****  * @return sc_event_data_t*: pointer to the current value of the application data buffer
 259:.\bsw\rte/sc_event.h ****  *
 260:.\bsw\rte/sc_event.h ****  **/
 261:.\bsw\rte/sc_event.h **** inline SC_EVENT_data_t* RTE_SC_EVENT_getPtr( SC_EVENT_t * const signal )
 262:.\bsw\rte/sc_event.h **** {               
 263:.\bsw\rte/sc_event.h ****    //Todo: Critical region cannot be protected using return values																						
 264:.\bsw\rte/sc_event.h ****    return &(signal->value);                                                                        
 265:.\bsw\rte/sc_event.h **** }
 266:.\bsw\rte/sc_event.h **** 
 267:.\bsw\rte/sc_event.h **** /**
 268:.\bsw\rte/sc_event.h ****  * Returns the current application value of the passed signal instance.
 269:.\bsw\rte/sc_event.h ****  *
 270:.\bsw\rte/sc_event.h ****  * @param  SC_EVENT_t * const signal: Pointer to the signal object
 271:.\bsw\rte/sc_event.h ****  * @return sc_event_data_t: current value of the application data buffer
 272:.\bsw\rte/sc_event.h ****  *
 273:.\bsw\rte/sc_event.h ****  **/
 274:.\bsw\rte/sc_event.h **** inline SC_EVENT_data_t RTE_SC_EVENT_get( const SC_EVENT_t * const signal )
 275:.\bsw\rte/sc_event.h **** {               
ARM GAS  C:\Users\vboxuser\AppData\Local\Temp\cc6N4dYh.s 			page 8


 276:.\bsw\rte/sc_event.h ****    //Todo: Critical region cannot be protected using return values																						
 277:.\bsw\rte/sc_event.h ****    return signal->value;                                                                           
 278:.\bsw\rte/sc_event.h **** }                                                                                                  
 279:.\bsw\rte/sc_event.h ****                                                                                                    
 280:.\bsw\rte/sc_event.h **** /**
 281:.\bsw\rte/sc_event.h ****  * Returns the current application value of the passed signal instance threadsafe.
 282:.\bsw\rte/sc_event.h ****  *
 283:.\bsw\rte/sc_event.h ****  * @param  SC_EVENT_t * const signal: Pointer to the signal object
 284:.\bsw\rte/sc_event.h ****  * @param  SC_EVENT_data_t* data: Pointer to the return data Pointer to the signal object
 285:.\bsw\rte/sc_event.h ****  * @return RC_SUCCESS
 286:.\bsw\rte/sc_event.h ****  *
 287:.\bsw\rte/sc_event.h ****  **/
 288:.\bsw\rte/sc_event.h **** inline RC_t RTE_SC_EVENT_getThreadSafe( const SC_EVENT_t * const signal, SC_EVENT_data_t * const da
 289:.\bsw\rte/sc_event.h **** {    
 290:.\bsw\rte/sc_event.h ****    if (TRUE == signal->pSigCfg->resourceActive) GetResource(signal->pSigCfg->resource);
 291:.\bsw\rte/sc_event.h ****    *data = signal->value;
 292:.\bsw\rte/sc_event.h ****    if (TRUE == signal->pSigCfg->resourceActive) ReleaseResource(signal->pSigCfg->resource);        
 293:.\bsw\rte/sc_event.h **** 
 294:.\bsw\rte/sc_event.h ****    return RC_SUCCESS;                                                                   
 295:.\bsw\rte/sc_event.h ****    
 296:.\bsw\rte/sc_event.h **** }                                                                                                  
 297:.\bsw\rte/sc_event.h ****                                                                                                    
 298:.\bsw\rte/sc_event.h **** /**
 299:.\bsw\rte/sc_event.h ****  * Sets a new application value to the passed signal instance by passing the new value.
 300:.\bsw\rte/sc_event.h ****  * The corresponding driver raw value will be calculated immediately by using the default conversio
 301:.\bsw\rte/sc_event.h ****  * signal specific scaling function.
 302:.\bsw\rte/sc_event.h ****  * The signal age will be set to 0 and the new status will be 'RTE_SIGNALSTATUS_VALID'.
 303:.\bsw\rte/sc_event.h ****  *
 304:.\bsw\rte/sc_event.h ****  * @param  SC_EVENT_t * const signal: Pointer to the signal object
 305:.\bsw\rte/sc_event.h ****  * @param  sc_event_data_t const value: value for the application data buffer
 306:.\bsw\rte/sc_event.h ****  * @return RC_t: standard return code, currently only RC_SUCCESS
 307:.\bsw\rte/sc_event.h ****  *
 308:.\bsw\rte/sc_event.h ****  **/
 309:.\bsw\rte/sc_event.h **** inline RC_t RTE_SC_EVENT_set(SC_EVENT_t * const signal, const SC_EVENT_data_t value  )
 310:.\bsw\rte/sc_event.h **** {
 311:.\bsw\rte/sc_event.h **** 
 312:.\bsw\rte/sc_event.h ****    RC_t ret = RC_SUCCESS;
 313:.\bsw\rte/sc_event.h ****    size_t taskNum=0;
 314:.\bsw\rte/sc_event.h **** 
 315:.\bsw\rte/sc_event.h **** 
 316:.\bsw\rte/sc_event.h ****    if (TRUE == signal->pSigCfg->resourceActive) GetResource(signal->pSigCfg->resource);
  56              		.loc 2 316 0
  57 0014 A04B     		ldr	r3, .L39+4
  58 0016 9B68     		ldr	r3, [r3, #8]
  59 0018 93F82020 		ldrb	r2, [r3, #32]	@ zero_extendqisi2
  60 001c 012A     		cmp	r2, #1
  61 001e 02D1     		bne	.L3
  62 0020 586A     		ldr	r0, [r3, #36]
  63              	.LVL3:
  64 0022 FFF7FEFF 		bl	EE_oo_GetResource
  65              	.LVL4:
  66              	.L3:
 317:.\bsw\rte/sc_event.h ****    signal->value  = value;
  67              		.loc 2 317 0
  68 0026 9C4B     		ldr	r3, .L39+4
  69 0028 0522     		movs	r2, #5
  70 002a 1A70     		strb	r2, [r3]
ARM GAS  C:\Users\vboxuser\AppData\Local\Temp\cc6N4dYh.s 			page 9


 318:.\bsw\rte/sc_event.h ****    signal->age    = 0;
  71              		.loc 2 318 0
  72 002c 0022     		movs	r2, #0
  73 002e 5A60     		str	r2, [r3, #4]
 319:.\bsw\rte/sc_event.h ****    signal->status = RTE_SIGNALSTATUS_VALID;
  74              		.loc 2 319 0
  75 0030 0222     		movs	r2, #2
  76 0032 5A70     		strb	r2, [r3, #1]
 320:.\bsw\rte/sc_event.h ****    if (TRUE == signal->pSigCfg->resourceActive) ReleaseResource(signal->pSigCfg->resource);
  77              		.loc 2 320 0
  78 0034 9B68     		ldr	r3, [r3, #8]
  79 0036 93F82020 		ldrb	r2, [r3, #32]	@ zero_extendqisi2
  80 003a 012A     		cmp	r2, #1
  81 003c 02D1     		bne	.L4
  82 003e 586A     		ldr	r0, [r3, #36]
  83 0040 FFF7FEFF 		bl	EE_oo_ReleaseResource
  84              	.LVL5:
  85              	.L4:
 321:.\bsw\rte/sc_event.h **** 
 322:.\bsw\rte/sc_event.h ****    //Pointer to the Taskarray, containing the tasks receiving the onUpdate events
 323:.\bsw\rte/sc_event.h ****    TaskTypeArray* pTaskArray = signal->pSigCfg->onUpdateTasks;
  86              		.loc 2 323 0
  87 0044 944B     		ldr	r3, .L39+4
  88 0046 9B68     		ldr	r3, [r3, #8]
  89 0048 5D69     		ldr	r5, [r3, #20]
  90              	.LVL6:
 324:.\bsw\rte/sc_event.h **** 
 325:.\bsw\rte/sc_event.h ****    if (0 != signal->pSigCfg->evOnUpdate && NULL != pTaskArray){
  91              		.loc 2 325 0
  92 004a 9B68     		ldr	r3, [r3, #8]
  93 004c 73B1     		cbz	r3, .L5
  94 004e 3DB9     		cbnz	r5, .L33
  95 0050 0CE0     		b	.L5
  96              	.LVL7:
  97              	.L7:
  98              	.LBB46:
 326:.\bsw\rte/sc_event.h ****       for( taskNum=0 ; taskNum < signal->pSigCfg->onUpdateTaskCount ;taskNum++){
 327:.\bsw\rte/sc_event.h **** 		  
 328:.\bsw\rte/sc_event.h ****           TaskType task = (*pTaskArray)[taskNum];
 329:.\bsw\rte/sc_event.h **** 	      SetEvent( task, signal->pSigCfg->evOnUpdate);
  99              		.loc 2 329 0
 100 0052 9968     		ldr	r1, [r3, #8]
 101 0054 55F82400 		ldr	r0, [r5, r4, lsl #2]
 102 0058 FFF7FEFF 		bl	EE_oo_SetEvent
 103              	.LVL8:
 104              	.LBE46:
 326:.\bsw\rte/sc_event.h ****       for( taskNum=0 ; taskNum < signal->pSigCfg->onUpdateTaskCount ;taskNum++){
 105              		.loc 2 326 0
 106 005c 0134     		adds	r4, r4, #1
 107              	.LVL9:
 108 005e 00E0     		b	.L6
 109              	.LVL10:
 110              	.L33:
 325:.\bsw\rte/sc_event.h ****       for( taskNum=0 ; taskNum < signal->pSigCfg->onUpdateTaskCount ;taskNum++){
 111              		.loc 2 325 0
 112 0060 0024     		movs	r4, #0
 113              	.LVL11:
ARM GAS  C:\Users\vboxuser\AppData\Local\Temp\cc6N4dYh.s 			page 10


 114              	.L6:
 326:.\bsw\rte/sc_event.h ****       for( taskNum=0 ; taskNum < signal->pSigCfg->onUpdateTaskCount ;taskNum++){
 115              		.loc 2 326 0
 116 0062 8D4B     		ldr	r3, .L39+4
 117 0064 9B68     		ldr	r3, [r3, #8]
 118 0066 1A69     		ldr	r2, [r3, #16]
 119 0068 9442     		cmp	r4, r2
 120 006a F2D3     		bcc	.L7
 121              	.LVL12:
 122              	.L5:
 123              	.LBE45:
 124              	.LBE44:
  70:asw/swc_clock.c ****         ////LOG_I("Event count","%d",shortEvent250msCount);
  71:asw/swc_clock.c ****         eventData.ev = EV_250MS;
  72:asw/swc_clock.c ****         RC_t rc = RTE_SC_EVENT_set(&SO_EVENT_signal,eventData);
  73:asw/swc_clock.c ****         timeElapsed =0;
 125              		.loc 1 73 0
 126 006c 0022     		movs	r2, #0
 127 006e 894B     		ldr	r3, .L39
 128 0070 1A80     		strh	r2, [r3]	@ movhi
 129              	.LVL13:
 130              	.L2:
 131              	.LBE43:
  74:asw/swc_clock.c ****     }
  75:asw/swc_clock.c ****     if (shortEvent250msCount == ONE_MIN_ELAPSED){
 132              		.loc 1 75 0
 133 0072 884B     		ldr	r3, .L39
 134 0074 5B88     		ldrh	r3, [r3, #2]
 135 0076 F02B     		cmp	r3, #240
 136 0078 46D1     		bne	.L8
 137              	.LBB47:
 138              	.LBB48:
  76:asw/swc_clock.c ****         LOG_D("Debug","1 Min Elapsed");
 139              		.loc 1 76 0 discriminator 1
 140 007a 0425     		movs	r5, #4
 141 007c 2AAC     		add	r4, sp, #168
 142 007e 04F8A85D 		strb	r5, [r4, #-168]!
 143 0082 864B     		ldr	r3, .L39+8
 144 0084 1868     		ldr	r0, [r3]	@ unaligned
 145 0086 CDF80100 		str	r0, [sp, #1]	@ unaligned
 146 008a 9B88     		ldrh	r3, [r3, #4]	@ unaligned
 147 008c ADF80530 		strh	r3, [sp, #5]	@ unaligned
 148 0090 834B     		ldr	r3, .L39+12
 149 0092 07CB     		ldmia	r3!, {r0, r1, r2}
 150 0094 CDF81100 		str	r0, [sp, #17]	@ unaligned
 151 0098 CDF81510 		str	r1, [sp, #21]	@ unaligned
 152 009c CDF81920 		str	r2, [sp, #25]	@ unaligned
 153 00a0 1B88     		ldrh	r3, [r3]	@ unaligned
 154 00a2 ADF81D30 		strh	r3, [sp, #29]	@ unaligned
 155 00a6 2046     		mov	r0, r4
 156 00a8 FFF7FEFF 		bl	LOG_send
 157              	.LVL14:
 158              	.LBE48:
 159              	.LBB49:
 160              	.LBB50:
 316:.\bsw\rte/sc_event.h ****    signal->value  = value;
 161              		.loc 2 316 0 discriminator 1
ARM GAS  C:\Users\vboxuser\AppData\Local\Temp\cc6N4dYh.s 			page 11


 162 00ac 7A4B     		ldr	r3, .L39+4
 163 00ae 9B68     		ldr	r3, [r3, #8]
 164 00b0 93F82020 		ldrb	r2, [r3, #32]	@ zero_extendqisi2
 165 00b4 012A     		cmp	r2, #1
 166 00b6 02D1     		bne	.L9
 316:.\bsw\rte/sc_event.h ****    signal->value  = value;
 167              		.loc 2 316 0 is_stmt 0
 168 00b8 586A     		ldr	r0, [r3, #36]
 169 00ba FFF7FEFF 		bl	EE_oo_GetResource
 170              	.LVL15:
 171              	.L9:
 317:.\bsw\rte/sc_event.h ****    signal->age    = 0;
 172              		.loc 2 317 0 is_stmt 1
 173 00be 764B     		ldr	r3, .L39+4
 174 00c0 1D70     		strb	r5, [r3]
 318:.\bsw\rte/sc_event.h ****    signal->status = RTE_SIGNALSTATUS_VALID;
 175              		.loc 2 318 0
 176 00c2 0022     		movs	r2, #0
 177 00c4 5A60     		str	r2, [r3, #4]
 319:.\bsw\rte/sc_event.h ****    if (TRUE == signal->pSigCfg->resourceActive) ReleaseResource(signal->pSigCfg->resource);
 178              		.loc 2 319 0
 179 00c6 0222     		movs	r2, #2
 180 00c8 5A70     		strb	r2, [r3, #1]
 320:.\bsw\rte/sc_event.h **** 
 181              		.loc 2 320 0
 182 00ca 9B68     		ldr	r3, [r3, #8]
 183 00cc 93F82020 		ldrb	r2, [r3, #32]	@ zero_extendqisi2
 184 00d0 012A     		cmp	r2, #1
 185 00d2 02D1     		bne	.L10
 186 00d4 586A     		ldr	r0, [r3, #36]
 187 00d6 FFF7FEFF 		bl	EE_oo_ReleaseResource
 188              	.LVL16:
 189              	.L10:
 323:.\bsw\rte/sc_event.h **** 
 190              		.loc 2 323 0
 191 00da 6F4B     		ldr	r3, .L39+4
 192 00dc 9B68     		ldr	r3, [r3, #8]
 193 00de 5D69     		ldr	r5, [r3, #20]
 194              	.LVL17:
 325:.\bsw\rte/sc_event.h ****       for( taskNum=0 ; taskNum < signal->pSigCfg->onUpdateTaskCount ;taskNum++){
 195              		.loc 2 325 0
 196 00e0 9B68     		ldr	r3, [r3, #8]
 197 00e2 73B1     		cbz	r3, .L11
 198 00e4 3DB9     		cbnz	r5, .L34
 199 00e6 0CE0     		b	.L11
 200              	.LVL18:
 201              	.L13:
 202              	.LBB51:
 203              		.loc 2 329 0
 204 00e8 9968     		ldr	r1, [r3, #8]
 205 00ea 55F82400 		ldr	r0, [r5, r4, lsl #2]
 206 00ee FFF7FEFF 		bl	EE_oo_SetEvent
 207              	.LVL19:
 208              	.LBE51:
 326:.\bsw\rte/sc_event.h **** 		  
 209              		.loc 2 326 0
 210 00f2 0134     		adds	r4, r4, #1
ARM GAS  C:\Users\vboxuser\AppData\Local\Temp\cc6N4dYh.s 			page 12


 211              	.LVL20:
 212 00f4 00E0     		b	.L12
 213              	.LVL21:
 214              	.L34:
 325:.\bsw\rte/sc_event.h ****       for( taskNum=0 ; taskNum < signal->pSigCfg->onUpdateTaskCount ;taskNum++){
 215              		.loc 2 325 0
 216 00f6 0024     		movs	r4, #0
 217              	.LVL22:
 218              	.L12:
 326:.\bsw\rte/sc_event.h **** 		  
 219              		.loc 2 326 0
 220 00f8 674B     		ldr	r3, .L39+4
 221 00fa 9B68     		ldr	r3, [r3, #8]
 222 00fc 1A69     		ldr	r2, [r3, #16]
 223 00fe 9442     		cmp	r4, r2
 224 0100 F2D3     		bcc	.L13
 225              	.LVL23:
 226              	.L11:
 227              	.LBE50:
 228              	.LBE49:
  77:asw/swc_clock.c ****         eventData.ev = EV_1MIN;
  78:asw/swc_clock.c ****         RC_t rc = RTE_SC_EVENT_set(&SO_EVENT_signal,eventData);
  79:asw/swc_clock.c ****         shortEvent250msCount =0;
 229              		.loc 1 79 0
 230 0102 0022     		movs	r2, #0
 231 0104 634B     		ldr	r3, .L39
 232 0106 5A80     		strh	r2, [r3, #2]	@ movhi
 233              	.LVL24:
 234              	.L8:
 235              	.LBE47:
  80:asw/swc_clock.c ****     }
  81:asw/swc_clock.c ****     
  82:asw/swc_clock.c ****     timeElapsed++;
 236              		.loc 1 82 0
 237 0108 624A     		ldr	r2, .L39
 238 010a 1388     		ldrh	r3, [r2]
 239 010c 0133     		adds	r3, r3, #1
 240 010e 1380     		strh	r3, [r2]	@ movhi
  83:asw/swc_clock.c ****     
  84:asw/swc_clock.c **** 
  85:asw/swc_clock.c ****     // Event Button 3 handling
  86:asw/swc_clock.c ****     
  87:asw/swc_clock.c ****     if(BUTTON_3_Read() == 1){
 241              		.loc 1 87 0
 242 0110 FFF7FEFF 		bl	BUTTON_3_Read
 243              	.LVL25:
 244 0114 0128     		cmp	r0, #1
 245 0116 04D1     		bne	.L14
  88:asw/swc_clock.c ****         leftButtonElapsed++;
 246              		.loc 1 88 0
 247 0118 5E4A     		ldr	r2, .L39
 248 011a 9388     		ldrh	r3, [r2, #4]
 249 011c 0133     		adds	r3, r3, #1
 250 011e 9380     		strh	r3, [r2, #4]	@ movhi
 251 0120 4CE0     		b	.L15
 252              	.L14:
  89:asw/swc_clock.c **** 
ARM GAS  C:\Users\vboxuser\AppData\Local\Temp\cc6N4dYh.s 			page 13


  90:asw/swc_clock.c ****     } else {
  91:asw/swc_clock.c ****         
  92:asw/swc_clock.c ****         if (leftButtonElapsed > 0){
 253              		.loc 1 92 0
 254 0122 5C4B     		ldr	r3, .L39
 255 0124 9B88     		ldrh	r3, [r3, #4]
 256 0126 002B     		cmp	r3, #0
 257 0128 45D0     		beq	.L16
 258              	.LBB52:
 259              	.LBB53:
  93:asw/swc_clock.c ****             LOG_D("Debug","Key Left");
 260              		.loc 1 93 0 discriminator 1
 261 012a 2AAA     		add	r2, sp, #168
 262 012c 0423     		movs	r3, #4
 263 012e 02F8A83D 		strb	r3, [r2, #-168]!
 264 0132 5A4B     		ldr	r3, .L39+8
 265 0134 1868     		ldr	r0, [r3]	@ unaligned
 266 0136 CDF80100 		str	r0, [sp, #1]	@ unaligned
 267 013a 9B88     		ldrh	r3, [r3, #4]	@ unaligned
 268 013c ADF80530 		strh	r3, [sp, #5]	@ unaligned
 269 0140 584B     		ldr	r3, .L39+16
 270 0142 03CB     		ldmia	r3!, {r0, r1}
 271 0144 CDF81100 		str	r0, [sp, #17]	@ unaligned
 272 0148 CDF81510 		str	r1, [sp, #21]	@ unaligned
 273 014c 1B78     		ldrb	r3, [r3]	@ zero_extendqisi2
 274 014e 8DF81930 		strb	r3, [sp, #25]
 275 0152 1046     		mov	r0, r2
 276 0154 FFF7FEFF 		bl	LOG_send
 277              	.LVL26:
 278              	.LBE53:
  94:asw/swc_clock.c ****             leftButtonElapsed =0;
 279              		.loc 1 94 0 discriminator 1
 280 0158 0022     		movs	r2, #0
 281 015a 4E4B     		ldr	r3, .L39
 282 015c 9A80     		strh	r2, [r3, #4]	@ movhi
 283              	.LVL27:
 284              	.LBB54:
 285              	.LBB55:
 316:.\bsw\rte/sc_event.h ****    signal->value  = value;
 286              		.loc 2 316 0 discriminator 1
 287 015e 4E4B     		ldr	r3, .L39+4
 288 0160 9B68     		ldr	r3, [r3, #8]
 289 0162 93F82020 		ldrb	r2, [r3, #32]	@ zero_extendqisi2
 290 0166 012A     		cmp	r2, #1
 291 0168 02D1     		bne	.L17
 316:.\bsw\rte/sc_event.h ****    signal->value  = value;
 292              		.loc 2 316 0 is_stmt 0
 293 016a 586A     		ldr	r0, [r3, #36]
 294 016c FFF7FEFF 		bl	EE_oo_GetResource
 295              	.LVL28:
 296              	.L17:
 317:.\bsw\rte/sc_event.h ****    signal->age    = 0;
 297              		.loc 2 317 0 is_stmt 1
 298 0170 494B     		ldr	r3, .L39+4
 299 0172 0122     		movs	r2, #1
 300 0174 1A70     		strb	r2, [r3]
 318:.\bsw\rte/sc_event.h ****    signal->status = RTE_SIGNALSTATUS_VALID;
ARM GAS  C:\Users\vboxuser\AppData\Local\Temp\cc6N4dYh.s 			page 14


 301              		.loc 2 318 0
 302 0176 0022     		movs	r2, #0
 303 0178 5A60     		str	r2, [r3, #4]
 319:.\bsw\rte/sc_event.h ****    if (TRUE == signal->pSigCfg->resourceActive) ReleaseResource(signal->pSigCfg->resource);
 304              		.loc 2 319 0
 305 017a 0222     		movs	r2, #2
 306 017c 5A70     		strb	r2, [r3, #1]
 320:.\bsw\rte/sc_event.h **** 
 307              		.loc 2 320 0
 308 017e 9B68     		ldr	r3, [r3, #8]
 309 0180 93F82020 		ldrb	r2, [r3, #32]	@ zero_extendqisi2
 310 0184 012A     		cmp	r2, #1
 311 0186 02D1     		bne	.L18
 312 0188 586A     		ldr	r0, [r3, #36]
 313 018a FFF7FEFF 		bl	EE_oo_ReleaseResource
 314              	.LVL29:
 315              	.L18:
 323:.\bsw\rte/sc_event.h **** 
 316              		.loc 2 323 0
 317 018e 424B     		ldr	r3, .L39+4
 318 0190 9B68     		ldr	r3, [r3, #8]
 319 0192 5D69     		ldr	r5, [r3, #20]
 320              	.LVL30:
 325:.\bsw\rte/sc_event.h ****       for( taskNum=0 ; taskNum < signal->pSigCfg->onUpdateTaskCount ;taskNum++){
 321              		.loc 2 325 0
 322 0194 9B68     		ldr	r3, [r3, #8]
 323 0196 73B1     		cbz	r3, .L16
 324 0198 3DB9     		cbnz	r5, .L35
 325 019a 0CE0     		b	.L16
 326              	.LVL31:
 327              	.L20:
 328              	.LBB56:
 329              		.loc 2 329 0
 330 019c 9968     		ldr	r1, [r3, #8]
 331 019e 55F82400 		ldr	r0, [r5, r4, lsl #2]
 332 01a2 FFF7FEFF 		bl	EE_oo_SetEvent
 333              	.LVL32:
 334              	.LBE56:
 326:.\bsw\rte/sc_event.h **** 		  
 335              		.loc 2 326 0
 336 01a6 0134     		adds	r4, r4, #1
 337              	.LVL33:
 338 01a8 00E0     		b	.L19
 339              	.LVL34:
 340              	.L35:
 325:.\bsw\rte/sc_event.h ****       for( taskNum=0 ; taskNum < signal->pSigCfg->onUpdateTaskCount ;taskNum++){
 341              		.loc 2 325 0
 342 01aa 0024     		movs	r4, #0
 343              	.LVL35:
 344              	.L19:
 326:.\bsw\rte/sc_event.h **** 		  
 345              		.loc 2 326 0
 346 01ac 3A4B     		ldr	r3, .L39+4
 347 01ae 9B68     		ldr	r3, [r3, #8]
 348 01b0 1A69     		ldr	r2, [r3, #16]
 349 01b2 9442     		cmp	r4, r2
 350 01b4 F2D3     		bcc	.L20
ARM GAS  C:\Users\vboxuser\AppData\Local\Temp\cc6N4dYh.s 			page 15


 351              	.LVL36:
 352              	.L16:
 353              	.LBE55:
 354              	.LBE54:
 355              	.LBE52:
  95:asw/swc_clock.c ****             eventData.ev = EV_KEYLEFT;
  96:asw/swc_clock.c ****             
  97:asw/swc_clock.c ****             RC_t result = RTE_SC_EVENT_set(&SO_EVENT_signal, eventData);
  98:asw/swc_clock.c ****             if (result != RC_SUCCESS){
  99:asw/swc_clock.c ****                 // Todo error handling
 100:asw/swc_clock.c ****             }
 101:asw/swc_clock.c ****         }
 102:asw/swc_clock.c ****         
 103:asw/swc_clock.c ****         leftButtonElapsed =0;
 356              		.loc 1 103 0
 357 01b6 0022     		movs	r2, #0
 358 01b8 364B     		ldr	r3, .L39
 359 01ba 9A80     		strh	r2, [r3, #4]	@ movhi
 360              	.L15:
 104:asw/swc_clock.c ****     }
 105:asw/swc_clock.c ****     // Handle key right event
 106:asw/swc_clock.c ****     if(BUTTON_4_Read() == 1){
 361              		.loc 1 106 0
 362 01bc FFF7FEFF 		bl	BUTTON_4_Read
 363              	.LVL37:
 364 01c0 0128     		cmp	r0, #1
 365 01c2 04D1     		bne	.L21
 107:asw/swc_clock.c ****         rightButtonElapsed++;
 366              		.loc 1 107 0
 367 01c4 334A     		ldr	r2, .L39
 368 01c6 D388     		ldrh	r3, [r2, #6]
 369 01c8 0133     		adds	r3, r3, #1
 370 01ca D380     		strh	r3, [r2, #6]	@ movhi
 371 01cc 75E0     		b	.L1
 372              	.L21:
 108:asw/swc_clock.c ****         
 109:asw/swc_clock.c ****     } else {
 110:asw/swc_clock.c ****         // This code only works when button is released
 111:asw/swc_clock.c ****         if (rightButtonElapsed > 0 && rightButtonElapsed <= LONG_PRESS_THRESHOLD ){
 373              		.loc 1 111 0
 374 01ce 314B     		ldr	r3, .L39
 375 01d0 DA88     		ldrh	r2, [r3, #6]
 376 01d2 531E     		subs	r3, r2, #1
 377 01d4 9BB2     		uxth	r3, r3
 378 01d6 132B     		cmp	r3, #19
 379 01d8 30D8     		bhi	.L23
 380              	.LBB57:
 112:asw/swc_clock.c ****             rightButtonElapsed =0;
 381              		.loc 1 112 0
 382 01da 0022     		movs	r2, #0
 383 01dc 2D4B     		ldr	r3, .L39
 384 01de DA80     		strh	r2, [r3, #6]	@ movhi
 385              	.LVL38:
 386              	.LBB58:
 387              	.LBB59:
 316:.\bsw\rte/sc_event.h ****    signal->value  = value;
 388              		.loc 2 316 0
ARM GAS  C:\Users\vboxuser\AppData\Local\Temp\cc6N4dYh.s 			page 16


 389 01e0 2D4B     		ldr	r3, .L39+4
 390 01e2 9B68     		ldr	r3, [r3, #8]
 391 01e4 93F82020 		ldrb	r2, [r3, #32]	@ zero_extendqisi2
 392 01e8 012A     		cmp	r2, #1
 393 01ea 02D1     		bne	.L24
 394 01ec 586A     		ldr	r0, [r3, #36]
 395 01ee FFF7FEFF 		bl	EE_oo_GetResource
 396              	.LVL39:
 397              	.L24:
 317:.\bsw\rte/sc_event.h ****    signal->age    = 0;
 398              		.loc 2 317 0
 399 01f2 294B     		ldr	r3, .L39+4
 400 01f4 0222     		movs	r2, #2
 401 01f6 1A70     		strb	r2, [r3]
 318:.\bsw\rte/sc_event.h ****    signal->status = RTE_SIGNALSTATUS_VALID;
 402              		.loc 2 318 0
 403 01f8 0022     		movs	r2, #0
 404 01fa 5A60     		str	r2, [r3, #4]
 319:.\bsw\rte/sc_event.h ****    if (TRUE == signal->pSigCfg->resourceActive) ReleaseResource(signal->pSigCfg->resource);
 405              		.loc 2 319 0
 406 01fc 0222     		movs	r2, #2
 407 01fe 5A70     		strb	r2, [r3, #1]
 320:.\bsw\rte/sc_event.h **** 
 408              		.loc 2 320 0
 409 0200 9B68     		ldr	r3, [r3, #8]
 410 0202 93F82020 		ldrb	r2, [r3, #32]	@ zero_extendqisi2
 411 0206 012A     		cmp	r2, #1
 412 0208 02D1     		bne	.L25
 413 020a 586A     		ldr	r0, [r3, #36]
 414 020c FFF7FEFF 		bl	EE_oo_ReleaseResource
 415              	.LVL40:
 416              	.L25:
 323:.\bsw\rte/sc_event.h **** 
 417              		.loc 2 323 0
 418 0210 214B     		ldr	r3, .L39+4
 419 0212 9B68     		ldr	r3, [r3, #8]
 420 0214 5D69     		ldr	r5, [r3, #20]
 421              	.LVL41:
 325:.\bsw\rte/sc_event.h ****       for( taskNum=0 ; taskNum < signal->pSigCfg->onUpdateTaskCount ;taskNum++){
 422              		.loc 2 325 0
 423 0216 9B68     		ldr	r3, [r3, #8]
 424 0218 002B     		cmp	r3, #0
 425 021a 4BD0     		beq	.L26
 426 021c 3DB9     		cbnz	r5, .L36
 427 021e 49E0     		b	.L26
 428              	.LVL42:
 429              	.L28:
 430              	.LBB60:
 431              		.loc 2 329 0
 432 0220 9968     		ldr	r1, [r3, #8]
 433 0222 55F82400 		ldr	r0, [r5, r4, lsl #2]
 434 0226 FFF7FEFF 		bl	EE_oo_SetEvent
 435              	.LVL43:
 436              	.LBE60:
 326:.\bsw\rte/sc_event.h **** 		  
 437              		.loc 2 326 0
 438 022a 0134     		adds	r4, r4, #1
ARM GAS  C:\Users\vboxuser\AppData\Local\Temp\cc6N4dYh.s 			page 17


 439              	.LVL44:
 440 022c 00E0     		b	.L27
 441              	.LVL45:
 442              	.L36:
 325:.\bsw\rte/sc_event.h ****       for( taskNum=0 ; taskNum < signal->pSigCfg->onUpdateTaskCount ;taskNum++){
 443              		.loc 2 325 0
 444 022e 0024     		movs	r4, #0
 445              	.LVL46:
 446              	.L27:
 326:.\bsw\rte/sc_event.h **** 		  
 447              		.loc 2 326 0
 448 0230 194B     		ldr	r3, .L39+4
 449 0232 9B68     		ldr	r3, [r3, #8]
 450 0234 1A69     		ldr	r2, [r3, #16]
 451 0236 9442     		cmp	r4, r2
 452 0238 F2D3     		bcc	.L28
 453 023a 3BE0     		b	.L26
 454              	.LVL47:
 455              	.L23:
 456              	.LBE59:
 457              	.LBE58:
 458              	.LBE57:
 113:asw/swc_clock.c ****             //LOG_D("Debug","Key Right");
 114:asw/swc_clock.c ****             eventData.ev = EV_KEYRIGHT;
 115:asw/swc_clock.c ****             RC_t result = RTE_SC_EVENT_set(&SO_EVENT_signal, eventData);
 116:asw/swc_clock.c ****         }
 117:asw/swc_clock.c ****         else if (rightButtonElapsed >LONG_PRESS_THRESHOLD){
 459              		.loc 1 117 0
 460 023c 142A     		cmp	r2, #20
 461 023e 39D9     		bls	.L26
 462              	.LBB61:
 118:asw/swc_clock.c ****             rightButtonElapsed=0;
 463              		.loc 1 118 0
 464 0240 0022     		movs	r2, #0
 465 0242 144B     		ldr	r3, .L39
 466 0244 DA80     		strh	r2, [r3, #6]	@ movhi
 467              	.LVL48:
 468              	.LBB62:
 469              	.LBB63:
 316:.\bsw\rte/sc_event.h ****    signal->value  = value;
 470              		.loc 2 316 0
 471 0246 144B     		ldr	r3, .L39+4
 472 0248 9B68     		ldr	r3, [r3, #8]
 473 024a 93F82020 		ldrb	r2, [r3, #32]	@ zero_extendqisi2
 474 024e 012A     		cmp	r2, #1
 475 0250 02D1     		bne	.L29
 476 0252 586A     		ldr	r0, [r3, #36]
 477 0254 FFF7FEFF 		bl	EE_oo_GetResource
 478              	.LVL49:
 479              	.L29:
 317:.\bsw\rte/sc_event.h ****    signal->age    = 0;
 480              		.loc 2 317 0
 481 0258 0F4B     		ldr	r3, .L39+4
 482 025a 0322     		movs	r2, #3
 483 025c 1A70     		strb	r2, [r3]
 318:.\bsw\rte/sc_event.h ****    signal->status = RTE_SIGNALSTATUS_VALID;
 484              		.loc 2 318 0
ARM GAS  C:\Users\vboxuser\AppData\Local\Temp\cc6N4dYh.s 			page 18


 485 025e 0022     		movs	r2, #0
 486 0260 5A60     		str	r2, [r3, #4]
 319:.\bsw\rte/sc_event.h ****    if (TRUE == signal->pSigCfg->resourceActive) ReleaseResource(signal->pSigCfg->resource);
 487              		.loc 2 319 0
 488 0262 0222     		movs	r2, #2
 489 0264 5A70     		strb	r2, [r3, #1]
 320:.\bsw\rte/sc_event.h **** 
 490              		.loc 2 320 0
 491 0266 9B68     		ldr	r3, [r3, #8]
 492 0268 93F82020 		ldrb	r2, [r3, #32]	@ zero_extendqisi2
 493 026c 012A     		cmp	r2, #1
 494 026e 02D1     		bne	.L30
 495 0270 586A     		ldr	r0, [r3, #36]
 496 0272 FFF7FEFF 		bl	EE_oo_ReleaseResource
 497              	.LVL50:
 498              	.L30:
 323:.\bsw\rte/sc_event.h **** 
 499              		.loc 2 323 0
 500 0276 084B     		ldr	r3, .L39+4
 501 0278 9B68     		ldr	r3, [r3, #8]
 502 027a 5D69     		ldr	r5, [r3, #20]
 503              	.LVL51:
 325:.\bsw\rte/sc_event.h ****       for( taskNum=0 ; taskNum < signal->pSigCfg->onUpdateTaskCount ;taskNum++){
 504              		.loc 2 325 0
 505 027c 9B68     		ldr	r3, [r3, #8]
 506 027e CBB1     		cbz	r3, .L26
 507 0280 95B9     		cbnz	r5, .L37
 508 0282 17E0     		b	.L26
 509              	.LVL52:
 510              	.L32:
 511              	.LBB64:
 512              		.loc 2 329 0
 513 0284 9968     		ldr	r1, [r3, #8]
 514 0286 55F82400 		ldr	r0, [r5, r4, lsl #2]
 515 028a FFF7FEFF 		bl	EE_oo_SetEvent
 516              	.LVL53:
 517              	.LBE64:
 326:.\bsw\rte/sc_event.h **** 		  
 518              		.loc 2 326 0
 519 028e 0134     		adds	r4, r4, #1
 520              	.LVL54:
 521 0290 0BE0     		b	.L31
 522              	.L40:
 523 0292 00BF     		.align	2
 524              	.L39:
 525 0294 00000000 		.word	.LANCHOR0
 526 0298 00000000 		.word	SO_EVENT_signal
 527 029c 00000000 		.word	.LC1
 528 02a0 08000000 		.word	.LC2
 529 02a4 18000000 		.word	.LC3
 530              	.LVL55:
 531              	.L37:
 325:.\bsw\rte/sc_event.h ****       for( taskNum=0 ; taskNum < signal->pSigCfg->onUpdateTaskCount ;taskNum++){
 532              		.loc 2 325 0
 533 02a8 0024     		movs	r4, #0
 534              	.LVL56:
 535              	.L31:
ARM GAS  C:\Users\vboxuser\AppData\Local\Temp\cc6N4dYh.s 			page 19


 326:.\bsw\rte/sc_event.h **** 		  
 536              		.loc 2 326 0
 537 02aa 054B     		ldr	r3, .L41
 538 02ac 9B68     		ldr	r3, [r3, #8]
 539 02ae 1A69     		ldr	r2, [r3, #16]
 540 02b0 9442     		cmp	r4, r2
 541 02b2 E7D3     		bcc	.L32
 542              	.LVL57:
 543              	.L26:
 544              	.LBE63:
 545              	.LBE62:
 546              	.LBE61:
 119:asw/swc_clock.c ****             //LOG_D("Debug","Key Right Long");
 120:asw/swc_clock.c ****             eventData.ev = EV_KEYRIGHTLONG;
 121:asw/swc_clock.c ****             RC_t result = RTE_SC_EVENT_set(&SO_EVENT_signal, eventData);
 122:asw/swc_clock.c ****         }
 123:asw/swc_clock.c ****        
 124:asw/swc_clock.c **** 
 125:asw/swc_clock.c ****         rightButtonElapsed =0;
 547              		.loc 1 125 0
 548 02b4 0022     		movs	r2, #0
 549 02b6 034B     		ldr	r3, .L41+4
 550 02b8 DA80     		strh	r2, [r3, #6]	@ movhi
 551              	.L1:
 126:asw/swc_clock.c ****     }
 127:asw/swc_clock.c ****     
 128:asw/swc_clock.c ****     /* USER CODE END CLOCK_input_run */
 129:asw/swc_clock.c **** }
 552              		.loc 1 129 0
 553 02ba 2BB0     		add	sp, sp, #172
 554              		.cfi_def_cfa_offset 12
 555              		@ sp needed
 556 02bc 30BD     		pop	{r4, r5, pc}
 557              	.L42:
 558 02be 00BF     		.align	2
 559              	.L41:
 560 02c0 00000000 		.word	SO_EVENT_signal
 561 02c4 00000000 		.word	.LANCHOR0
 562              		.cfi_endproc
 563              	.LFE136:
 564              		.size	CLOCK_input_run, .-CLOCK_input_run
 565              		.section	.text.CLOCK_control_run,"ax",%progbits
 566              		.align	2
 567              		.global	CLOCK_control_run
 568              		.thumb
 569              		.thumb_func
 570              		.type	CLOCK_control_run, %function
 571              	CLOCK_control_run:
 572              	.LFB137:
 130:asw/swc_clock.c **** 
 131:asw/swc_clock.c **** /*
 132:asw/swc_clock.c ****  * component: swc_Clock
 133:asw/swc_clock.c ****  * cycletime: 100
 134:asw/swc_clock.c ****  * description: Runnable control state machine
 135:asw/swc_clock.c ****  * events: ev_event_onData
 136:asw/swc_clock.c ****  * name: CLOCK_control_run
 137:asw/swc_clock.c ****  * shortname: control
ARM GAS  C:\Users\vboxuser\AppData\Local\Temp\cc6N4dYh.s 			page 20


 138:asw/swc_clock.c ****  * signalIN: so_event
 139:asw/swc_clock.c ****  * signalOUT: 
 140:asw/swc_clock.c ****  * task: tsk_control
 141:asw/swc_clock.c ****  */
 142:asw/swc_clock.c **** void CLOCK_control_run(RTE_event ev){
 573              		.loc 1 142 0
 574              		.cfi_startproc
 575              		@ args = 0, pretend = 0, frame = 208
 576              		@ frame_needed = 0, uses_anonymous_args = 0
 577              	.LVL58:
 578 0000 70B5     		push	{r4, r5, r6, lr}
 579              		.cfi_def_cfa_offset 16
 580              		.cfi_offset 4, -16
 581              		.cfi_offset 5, -12
 582              		.cfi_offset 6, -8
 583              		.cfi_offset 14, -4
 584 0002 B4B0     		sub	sp, sp, #208
 585              		.cfi_def_cfa_offset 224
 586              	.LVL59:
 587              	.LBB65:
 588              	.LBB66:
 589              		.file 3 ".\\bsw\\rte/sc_clock.h"
   1:.\bsw\rte/sc_clock.h **** 
   2:.\bsw\rte/sc_clock.h **** 
   3:.\bsw\rte/sc_clock.h **** /**
   4:.\bsw\rte/sc_clock.h ****  *  file    SC_CLOCK_signal.h
   5:.\bsw\rte/sc_clock.h ****  *
   6:.\bsw\rte/sc_clock.h ****  *  brief   signal base class for signal sc_clock
   7:.\bsw\rte/sc_clock.h ****  *
   8:.\bsw\rte/sc_clock.h ****  *  author  Autogenerated, Peter Fromm       <peter.fromm@h-da.de>
   9:.\bsw\rte/sc_clock.h ****  *
  10:.\bsw\rte/sc_clock.h ****  * description: Storing clock data( hour + minute widget)
  11:.\bsw\rte/sc_clock.h ****  * name: sc_clock
  12:.\bsw\rte/sc_clock.h ****  * shortname: clock
  13:.\bsw\rte/sc_clock.h ****  *
  14:.\bsw\rte/sc_clock.h ****  */
  15:.\bsw\rte/sc_clock.h **** 
  16:.\bsw\rte/sc_clock.h **** 
  17:.\bsw\rte/sc_clock.h **** 
  18:.\bsw\rte/sc_clock.h **** #ifndef SC_CLOCK_SIGNAL_H_INCLUDED
  19:.\bsw\rte/sc_clock.h **** #define SC_CLOCK_SIGNAL_H_INCLUDED
  20:.\bsw\rte/sc_clock.h **** 
  21:.\bsw\rte/sc_clock.h **** /*================================================[ public includes  ]=============================
  22:.\bsw\rte/sc_clock.h **** #include "global.h"
  23:.\bsw\rte/sc_clock.h **** #include "project.h"
  24:.\bsw\rte/sc_clock.h **** #include "rte.h"
  25:.\bsw\rte/sc_clock.h **** #include "rte_types.h"
  26:.\bsw\rte/sc_clock.h **** 
  27:.\bsw\rte/sc_clock.h **** #include "sc_clock_type.h"
  28:.\bsw\rte/sc_clock.h **** 
  29:.\bsw\rte/sc_clock.h **** 
  30:.\bsw\rte/sc_clock.h **** /**************************************************************************************************
  31:.\bsw\rte/sc_clock.h **** /* The driver API block																						*/
  32:.\bsw\rte/sc_clock.h **** /**************************************************************************************************
  33:.\bsw\rte/sc_clock.h ****                                                                                                    
  34:.\bsw\rte/sc_clock.h **** /**
  35:.\bsw\rte/sc_clock.h ****  *  Definition of function types for driver interfaces.
ARM GAS  C:\Users\vboxuser\AppData\Local\Temp\cc6N4dYh.s 			page 21


  36:.\bsw\rte/sc_clock.h ****  *  I-Port
  37:.\bsw\rte/sc_clock.h ****  */
  38:.\bsw\rte/sc_clock.h **** typedef RC_t (*SC_CLOCK_driverIn_t)(SC_CLOCK_data_t * const);
  39:.\bsw\rte/sc_clock.h **** 
  40:.\bsw\rte/sc_clock.h **** /**
  41:.\bsw\rte/sc_clock.h ****  *  Definition of function types for driver interfaces.
  42:.\bsw\rte/sc_clock.h ****  *  O-Port
  43:.\bsw\rte/sc_clock.h ****  */
  44:.\bsw\rte/sc_clock.h **** typedef RC_t (*SC_CLOCK_driverOut_t)( const SC_CLOCK_data_t * const);
  45:.\bsw\rte/sc_clock.h **** 
  46:.\bsw\rte/sc_clock.h **** 
  47:.\bsw\rte/sc_clock.h **** /**************************************************************************************************
  48:.\bsw\rte/sc_clock.h **** /* The signal configuration API block																				*/
  49:.\bsw\rte/sc_clock.h **** /**************************************************************************************************
  50:.\bsw\rte/sc_clock.h **** 
  51:.\bsw\rte/sc_clock.h **** /**
  52:.\bsw\rte/sc_clock.h ****  * Instances of the struct SC_CLOCK_cfg_t represent the signal object configuration.
  53:.\bsw\rte/sc_clock.h ****  */
  54:.\bsw\rte/sc_clock.h **** struct SC_CLOCK_cfg_s
  55:.\bsw\rte/sc_clock.h **** {
  56:.\bsw\rte/sc_clock.h ****     /**
  57:.\bsw\rte/sc_clock.h ****      * Function pointer to the input driver
  58:.\bsw\rte/sc_clock.h ****      */
  59:.\bsw\rte/sc_clock.h ****     SC_CLOCK_driverIn_t const inDriver;
  60:.\bsw\rte/sc_clock.h **** 
  61:.\bsw\rte/sc_clock.h ****     /**
  62:.\bsw\rte/sc_clock.h ****      * Function pointer to the output driver table
  63:.\bsw\rte/sc_clock.h ****      */
  64:.\bsw\rte/sc_clock.h ****    SC_CLOCK_driverOut_t const outDriver;
  65:.\bsw\rte/sc_clock.h ****    
  66:.\bsw\rte/sc_clock.h ****     /**
  67:.\bsw\rte/sc_clock.h ****      * Event onUpdate
  68:.\bsw\rte/sc_clock.h ****      */
  69:.\bsw\rte/sc_clock.h ****     EventMaskType const evOnUpdate;
  70:.\bsw\rte/sc_clock.h ****     
  71:.\bsw\rte/sc_clock.h ****     
  72:.\bsw\rte/sc_clock.h ****     /**
  73:.\bsw\rte/sc_clock.h ****      * Event onError
  74:.\bsw\rte/sc_clock.h ****      */
  75:.\bsw\rte/sc_clock.h ****     EventMaskType const evOnError;
  76:.\bsw\rte/sc_clock.h ****     
  77:.\bsw\rte/sc_clock.h ****     /**
  78:.\bsw\rte/sc_clock.h ****      * Task Count onUpdate
  79:.\bsw\rte/sc_clock.h ****      */
  80:.\bsw\rte/sc_clock.h ****     size_t const onUpdateTaskCount;
  81:.\bsw\rte/sc_clock.h **** 
  82:.\bsw\rte/sc_clock.h ****     /**
  83:.\bsw\rte/sc_clock.h ****      * Task List onUpdate
  84:.\bsw\rte/sc_clock.h ****      */
  85:.\bsw\rte/sc_clock.h ****     TaskTypeArray* const onUpdateTasks;
  86:.\bsw\rte/sc_clock.h ****     
  87:.\bsw\rte/sc_clock.h ****     /**
  88:.\bsw\rte/sc_clock.h ****      * Task Count onError
  89:.\bsw\rte/sc_clock.h ****      */
  90:.\bsw\rte/sc_clock.h ****     size_t const onErrorTaskCount;
  91:.\bsw\rte/sc_clock.h **** 
  92:.\bsw\rte/sc_clock.h ****     /**
ARM GAS  C:\Users\vboxuser\AppData\Local\Temp\cc6N4dYh.s 			page 22


  93:.\bsw\rte/sc_clock.h ****      * Task List onError
  94:.\bsw\rte/sc_clock.h ****      */
  95:.\bsw\rte/sc_clock.h ****     TaskTypeArray* const onErrorTasks;
  96:.\bsw\rte/sc_clock.h **** 	
  97:.\bsw\rte/sc_clock.h **** 	
  98:.\bsw\rte/sc_clock.h **** 	/**
  99:.\bsw\rte/sc_clock.h **** 	 * Ressourse is active? We need an additional boolean as a ressource value 0 is valid.
 100:.\bsw\rte/sc_clock.h **** 	 */
 101:.\bsw\rte/sc_clock.h **** 	 boolean_t const resourceActive;
 102:.\bsw\rte/sc_clock.h **** 	 
 103:.\bsw\rte/sc_clock.h **** 	/**
 104:.\bsw\rte/sc_clock.h **** 	 * Ressourse 
 105:.\bsw\rte/sc_clock.h **** 	 */
 106:.\bsw\rte/sc_clock.h **** 	 ResourceType const resource;
 107:.\bsw\rte/sc_clock.h **** 
 108:.\bsw\rte/sc_clock.h **** };                                                                                                 
 109:.\bsw\rte/sc_clock.h **** typedef const struct SC_CLOCK_cfg_s SC_CLOCK_cfg_t;
 110:.\bsw\rte/sc_clock.h ****                               
 111:.\bsw\rte/sc_clock.h **** /**************************************************************************************************
 112:.\bsw\rte/sc_clock.h **** /* The data interface block																							*/
 113:.\bsw\rte/sc_clock.h **** /**************************************************************************************************
 114:.\bsw\rte/sc_clock.h **** 
 115:.\bsw\rte/sc_clock.h ****                                                                                                    
 116:.\bsw\rte/sc_clock.h **** 							  
 117:.\bsw\rte/sc_clock.h **** /**
 118:.\bsw\rte/sc_clock.h ****  * Instances of the struct SC_CLOCK_t represent the signal objects.
 119:.\bsw\rte/sc_clock.h ****  * A signal object contains the current application value 'value' as well as relevant meta data.
 120:.\bsw\rte/sc_clock.h ****  */
 121:.\bsw\rte/sc_clock.h **** struct SC_CLOCK_s
 122:.\bsw\rte/sc_clock.h **** {                                                                                                  
 123:.\bsw\rte/sc_clock.h **** 
 124:.\bsw\rte/sc_clock.h **** 	/**
 125:.\bsw\rte/sc_clock.h **** 	 * Data buffer for the application value
 126:.\bsw\rte/sc_clock.h **** 	 */
 127:.\bsw\rte/sc_clock.h ****     SC_CLOCK_data_t value;
 128:.\bsw\rte/sc_clock.h **** 
 129:.\bsw\rte/sc_clock.h ****     /**
 130:.\bsw\rte/sc_clock.h ****      * Current signal status
 131:.\bsw\rte/sc_clock.h ****      */
 132:.\bsw\rte/sc_clock.h ****     RTE_signalStatus_t status;
 133:.\bsw\rte/sc_clock.h **** 
 134:.\bsw\rte/sc_clock.h ****     /**
 135:.\bsw\rte/sc_clock.h ****      * Current age of the signal (in calling cycles)
 136:.\bsw\rte/sc_clock.h ****      */
 137:.\bsw\rte/sc_clock.h ****     uint32_t age;
 138:.\bsw\rte/sc_clock.h **** 
 139:.\bsw\rte/sc_clock.h ****     /**
 140:.\bsw\rte/sc_clock.h ****      * Pointer to the signal configuration
 141:.\bsw\rte/sc_clock.h ****      */
 142:.\bsw\rte/sc_clock.h **** 	const SC_CLOCK_cfg_t * const    pSigCfg;
 143:.\bsw\rte/sc_clock.h **** 
 144:.\bsw\rte/sc_clock.h **** };                                                                                                 
 145:.\bsw\rte/sc_clock.h **** typedef struct SC_CLOCK_s SC_CLOCK_t;
 146:.\bsw\rte/sc_clock.h **** 
 147:.\bsw\rte/sc_clock.h **** /**************************************************************************************************
 148:.\bsw\rte/sc_clock.h **** /* Signal initialisation   																							*/
 149:.\bsw\rte/sc_clock.h **** /**************************************************************************************************
ARM GAS  C:\Users\vboxuser\AppData\Local\Temp\cc6N4dYh.s 			page 23


 150:.\bsw\rte/sc_clock.h **** 
 151:.\bsw\rte/sc_clock.h **** /**
 152:.\bsw\rte/sc_clock.h ****  * Initializes a signal instance with a passed init value.
 153:.\bsw\rte/sc_clock.h ****  * Depending on the configured conversion or scaling function the raw_value will be calculated.
 154:.\bsw\rte/sc_clock.h ****  * Signal status will change from RTE_SIGNALSTATUS_STARTUP to RTE_SIGNALSTATUS_INITIALIZED.
 155:.\bsw\rte/sc_clock.h ****  *
 156:.\bsw\rte/sc_clock.h ****  * @param  SC_CLOCK_t * const signal: Pointer to the signal object which will be initialised
 157:.\bsw\rte/sc_clock.h ****  * @return RC_t: standard return code, currently only RC_SUCCESS
 158:.\bsw\rte/sc_clock.h ****  *
 159:.\bsw\rte/sc_clock.h ****  **/
 160:.\bsw\rte/sc_clock.h **** inline RC_t RTE_SC_CLOCK_init( SC_CLOCK_t * const signal )
 161:.\bsw\rte/sc_clock.h **** {                                                                                                  
 162:.\bsw\rte/sc_clock.h **** 
 163:.\bsw\rte/sc_clock.h ****    RC_t ret = RC_SUCCESS;
 164:.\bsw\rte/sc_clock.h **** 
 165:.\bsw\rte/sc_clock.h ****    //Set value and raw value
 166:.\bsw\rte/sc_clock.h ****    signal->value  = SC_CLOCK_INIT_DATA;
 167:.\bsw\rte/sc_clock.h ****    signal->age    = 0;
 168:.\bsw\rte/sc_clock.h ****    signal->status = RTE_SIGNALSTATUS_INITIALIZED;
 169:.\bsw\rte/sc_clock.h **** 
 170:.\bsw\rte/sc_clock.h ****    return ret;
 171:.\bsw\rte/sc_clock.h **** }
 172:.\bsw\rte/sc_clock.h **** 
 173:.\bsw\rte/sc_clock.h **** /**************************************************************************************************
 174:.\bsw\rte/sc_clock.h **** /* Status and timeout control																						*/
 175:.\bsw\rte/sc_clock.h **** /**************************************************************************************************
 176:.\bsw\rte/sc_clock.h **** 
 177:.\bsw\rte/sc_clock.h **** /**
 178:.\bsw\rte/sc_clock.h ****  *  Returns the current signal status of the passed signal instance.
 179:.\bsw\rte/sc_clock.h ****  *
 180:.\bsw\rte/sc_clock.h ****  * @param  SC_CLOCK_t * const signal: Pointer to the signal object
 181:.\bsw\rte/sc_clock.h ****  * @return  sig_status_t: The current signal status
 182:.\bsw\rte/sc_clock.h ****  *
 183:.\bsw\rte/sc_clock.h ****  **/
 184:.\bsw\rte/sc_clock.h **** inline RTE_signalStatus_t RTE_SC_CLOCK_getStatus( const SC_CLOCK_t * const signal )
 185:.\bsw\rte/sc_clock.h **** {
 186:.\bsw\rte/sc_clock.h ****    return signal->status;
 187:.\bsw\rte/sc_clock.h **** }
 188:.\bsw\rte/sc_clock.h **** 
 189:.\bsw\rte/sc_clock.h **** 
 190:.\bsw\rte/sc_clock.h **** /**
 191:.\bsw\rte/sc_clock.h ****  *  Sets a new signal status of the passed signal instance by passing the new status.
 192:.\bsw\rte/sc_clock.h ****  *
 193:.\bsw\rte/sc_clock.h ****  * @param  SC_CLOCK_t * const signal: Pointer to the signal object
 194:.\bsw\rte/sc_clock.h ****  * @param  const sig_status_t status: New signal status
 195:.\bsw\rte/sc_clock.h ****  * @return RC_t: standard return code, currently only RC_SUCCESS
 196:.\bsw\rte/sc_clock.h ****  *
 197:.\bsw\rte/sc_clock.h ****  */
 198:.\bsw\rte/sc_clock.h **** inline RC_t RTE_SC_CLOCK_setStatus( SC_CLOCK_t * const signal, const RTE_signalStatus_t status )
 199:.\bsw\rte/sc_clock.h **** {
 200:.\bsw\rte/sc_clock.h ****    signal->status = status;
 201:.\bsw\rte/sc_clock.h ****    size_t taskNum=0;
 202:.\bsw\rte/sc_clock.h ****    
 203:.\bsw\rte/sc_clock.h ****    //Fire error events in case of invalid state
 204:.\bsw\rte/sc_clock.h ****    if (signal->status == RTE_SIGNALSTATUS_INVALID)
 205:.\bsw\rte/sc_clock.h ****    {
 206:.\bsw\rte/sc_clock.h **** 	    //Pointer to the Taskarray, containing the tasks receiving the onUpdate events
ARM GAS  C:\Users\vboxuser\AppData\Local\Temp\cc6N4dYh.s 			page 24


 207:.\bsw\rte/sc_clock.h **** 		TaskTypeArray* pTaskArray = signal->pSigCfg->onErrorTasks;
 208:.\bsw\rte/sc_clock.h **** 
 209:.\bsw\rte/sc_clock.h **** 		if (0 != signal->pSigCfg->evOnError && NULL != pTaskArray){
 210:.\bsw\rte/sc_clock.h **** 			for( taskNum=0 ; taskNum < signal->pSigCfg->onErrorTaskCount ;taskNum++){
 211:.\bsw\rte/sc_clock.h **** 				TaskType task = (*pTaskArray)[taskNum];
 212:.\bsw\rte/sc_clock.h **** 				SetEvent( task, signal->pSigCfg->evOnError);
 213:.\bsw\rte/sc_clock.h **** 			}
 214:.\bsw\rte/sc_clock.h **** 		}
 215:.\bsw\rte/sc_clock.h ****    }
 216:.\bsw\rte/sc_clock.h ****    
 217:.\bsw\rte/sc_clock.h ****    return RC_SUCCESS;
 218:.\bsw\rte/sc_clock.h **** }
 219:.\bsw\rte/sc_clock.h **** 
 220:.\bsw\rte/sc_clock.h **** 
 221:.\bsw\rte/sc_clock.h **** /**
 222:.\bsw\rte/sc_clock.h ****  * Returns the count of refreshing trials (refresh, set or set_raw) that failed.
 223:.\bsw\rte/sc_clock.h ****  * Prerquisite: The signal is refreshed cyclically
 224:.\bsw\rte/sc_clock.h ****  *
 225:.\bsw\rte/sc_clock.h ****  * @param  SC_CLOCK_t * const signal: Pointer to the signal object
 226:.\bsw\rte/sc_clock.h ****  * @return uint32_t: Number of cycles since the signal has been updated for the last time
 227:.\bsw\rte/sc_clock.h ****  */
 228:.\bsw\rte/sc_clock.h **** inline uint32_t RTE_SC_CLOCK_getAge( const SC_CLOCK_t * const signal )
 229:.\bsw\rte/sc_clock.h **** {
 230:.\bsw\rte/sc_clock.h ****    return signal->age;
 231:.\bsw\rte/sc_clock.h **** }
 232:.\bsw\rte/sc_clock.h **** 
 233:.\bsw\rte/sc_clock.h **** /**
 234:.\bsw\rte/sc_clock.h ****  * Should be called by application or driver if no new value can be provided.
 235:.\bsw\rte/sc_clock.h ****  * @param  SC_CLOCK_t * const signal: Pointer to the signal object
 236:.\bsw\rte/sc_clock.h ****  * @param uint32_t increment: incrementvalue, typically in [ms]
 237:.\bsw\rte/sc_clock.h ****  * @return void
 238:.\bsw\rte/sc_clock.h ****  */
 239:.\bsw\rte/sc_clock.h **** inline void RTE_SC_CLOCK_incAge(  SC_CLOCK_t * const signal , uint32_t increment)
 240:.\bsw\rte/sc_clock.h **** {
 241:.\bsw\rte/sc_clock.h **** 	   //Hack....
 242:.\bsw\rte/sc_clock.h **** 	   if ( 0xFFFF0000 > (signal->age + increment) )
 243:.\bsw\rte/sc_clock.h **** 	   {
 244:.\bsw\rte/sc_clock.h **** 	      signal->age += increment;
 245:.\bsw\rte/sc_clock.h **** 	   }
 246:.\bsw\rte/sc_clock.h **** }
 247:.\bsw\rte/sc_clock.h **** 
 248:.\bsw\rte/sc_clock.h **** 
 249:.\bsw\rte/sc_clock.h **** /**************************************************************************************************
 250:.\bsw\rte/sc_clock.h **** /* Application Data read/write Interface																			*/
 251:.\bsw\rte/sc_clock.h **** /**************************************************************************************************
 252:.\bsw\rte/sc_clock.h **** 
 253:.\bsw\rte/sc_clock.h **** /**
 254:.\bsw\rte/sc_clock.h ****  * Returns the current application value as pointer to the signal payload.
 255:.\bsw\rte/sc_clock.h ****  * Careful: This is not threadsafe!!!
 256:.\bsw\rte/sc_clock.h ****  *
 257:.\bsw\rte/sc_clock.h ****  * @param  SC_CLOCK_t * const signal: Pointer to the signal object
 258:.\bsw\rte/sc_clock.h ****  * @return sc_clock_data_t*: pointer to the current value of the application data buffer
 259:.\bsw\rte/sc_clock.h ****  *
 260:.\bsw\rte/sc_clock.h ****  **/
 261:.\bsw\rte/sc_clock.h **** inline SC_CLOCK_data_t* RTE_SC_CLOCK_getPtr( SC_CLOCK_t * const signal )
 262:.\bsw\rte/sc_clock.h **** {               
 263:.\bsw\rte/sc_clock.h ****    //Todo: Critical region cannot be protected using return values																						
ARM GAS  C:\Users\vboxuser\AppData\Local\Temp\cc6N4dYh.s 			page 25


 264:.\bsw\rte/sc_clock.h ****    return &(signal->value);                                                                        
 265:.\bsw\rte/sc_clock.h **** }
 266:.\bsw\rte/sc_clock.h **** 
 267:.\bsw\rte/sc_clock.h **** /**
 268:.\bsw\rte/sc_clock.h ****  * Returns the current application value of the passed signal instance.
 269:.\bsw\rte/sc_clock.h ****  *
 270:.\bsw\rte/sc_clock.h ****  * @param  SC_CLOCK_t * const signal: Pointer to the signal object
 271:.\bsw\rte/sc_clock.h ****  * @return sc_clock_data_t: current value of the application data buffer
 272:.\bsw\rte/sc_clock.h ****  *
 273:.\bsw\rte/sc_clock.h ****  **/
 274:.\bsw\rte/sc_clock.h **** inline SC_CLOCK_data_t RTE_SC_CLOCK_get( const SC_CLOCK_t * const signal )
 275:.\bsw\rte/sc_clock.h **** {               
 276:.\bsw\rte/sc_clock.h ****    //Todo: Critical region cannot be protected using return values																						
 277:.\bsw\rte/sc_clock.h ****    return signal->value;                                                                           
 278:.\bsw\rte/sc_clock.h **** }                                                                                                  
 279:.\bsw\rte/sc_clock.h ****                                                                                                    
 280:.\bsw\rte/sc_clock.h **** /**
 281:.\bsw\rte/sc_clock.h ****  * Returns the current application value of the passed signal instance threadsafe.
 282:.\bsw\rte/sc_clock.h ****  *
 283:.\bsw\rte/sc_clock.h ****  * @param  SC_CLOCK_t * const signal: Pointer to the signal object
 284:.\bsw\rte/sc_clock.h ****  * @param  SC_CLOCK_data_t* data: Pointer to the return data Pointer to the signal object
 285:.\bsw\rte/sc_clock.h ****  * @return RC_SUCCESS
 286:.\bsw\rte/sc_clock.h ****  *
 287:.\bsw\rte/sc_clock.h ****  **/
 288:.\bsw\rte/sc_clock.h **** inline RC_t RTE_SC_CLOCK_getThreadSafe( const SC_CLOCK_t * const signal, SC_CLOCK_data_t * const da
 289:.\bsw\rte/sc_clock.h **** {    
 290:.\bsw\rte/sc_clock.h ****    if (TRUE == signal->pSigCfg->resourceActive) GetResource(signal->pSigCfg->resource);
 590              		.loc 3 290 0
 591 0004 4A4B     		ldr	r3, .L55
 592 0006 1B6B     		ldr	r3, [r3, #48]
 593 0008 93F82020 		ldrb	r2, [r3, #32]	@ zero_extendqisi2
 594 000c 012A     		cmp	r2, #1
 595 000e 02D1     		bne	.L44
 596 0010 586A     		ldr	r0, [r3, #36]
 597              	.LVL60:
 598 0012 FFF7FEFF 		bl	EE_oo_GetResource
 599              	.LVL61:
 600              	.L44:
 291:.\bsw\rte/sc_clock.h ****    *data = signal->value;
 601              		.loc 3 291 0
 602 0016 464E     		ldr	r6, .L55
 603 0018 2AAC     		add	r4, sp, #168
 604              	.LVL62:
 605 001a 3546     		mov	r5, r6
 606 001c 0FCD     		ldmia	r5!, {r0, r1, r2, r3}
 607 001e 0FC4     		stmia	r4!, {r0, r1, r2, r3}
 608              	.LVL63:
 609 0020 0FCD     		ldmia	r5!, {r0, r1, r2, r3}
 610 0022 0FC4     		stmia	r4!, {r0, r1, r2, r3}
 611              	.LVL64:
 612 0024 95E80300 		ldmia	r5, {r0, r1}
 613 0028 84E80300 		stmia	r4, {r0, r1}
 292:.\bsw\rte/sc_clock.h ****    if (TRUE == signal->pSigCfg->resourceActive) ReleaseResource(signal->pSigCfg->resource);        
 614              		.loc 3 292 0
 615 002c 336B     		ldr	r3, [r6, #48]
 616 002e 93F82020 		ldrb	r2, [r3, #32]	@ zero_extendqisi2
 617 0032 012A     		cmp	r2, #1
ARM GAS  C:\Users\vboxuser\AppData\Local\Temp\cc6N4dYh.s 			page 26


 618 0034 02D1     		bne	.L45
 619 0036 586A     		ldr	r0, [r3, #36]
 620 0038 FFF7FEFF 		bl	EE_oo_ReleaseResource
 621              	.LVL65:
 622              	.L45:
 623              	.LBE66:
 624              	.LBE65:
 143:asw/swc_clock.c **** 	
 144:asw/swc_clock.c **** 	/* USER CODE START CLOCK_control_run */
 145:asw/swc_clock.c ****     //Get the current clock data from the clock signal
 146:asw/swc_clock.c ****     
 147:asw/swc_clock.c ****     SC_CLOCK_data_t data = SC_CLOCK_INIT_DATA;
 148:asw/swc_clock.c **** 
 149:asw/swc_clock.c ****     RTE_SC_CLOCK_getThreadSafe(&SO_CLOCK_signal,&data);
 150:asw/swc_clock.c **** 
 151:asw/swc_clock.c ****     //Read the event from the EVENT signal
 152:asw/swc_clock.c **** 
 153:asw/swc_clock.c ****     SC_EVENT_data_t eventData = RTE_SC_EVENT_get(&SO_EVENT_signal);
 154:asw/swc_clock.c ****     //Process the clock state machine
 155:asw/swc_clock.c ****     
 156:asw/swc_clock.c ****     STATE_processEvent(data.m_clockStateMachine, EVENT(eventData.ev));
 625              		.loc 1 156 0
 626 003c 3D4B     		ldr	r3, .L55+4
 627 003e 1D78     		ldrb	r5, [r3]	@ zero_extendqisi2
 628 0040 2946     		mov	r1, r5
 629 0042 2A98     		ldr	r0, [sp, #168]
 630 0044 FFF7FEFF 		bl	STATE_processEvent
 631              	.LVL66:
 632              	.LBB67:
 157:asw/swc_clock.c ****     LOG_D("Processed event","%d",eventData.ev);
 633              		.loc 1 157 0
 634 0048 0423     		movs	r3, #4
 635 004a 8DF80030 		strb	r3, [sp]
 636 004e 3A4C     		ldr	r4, .L55+8
 637 0050 0FCC     		ldmia	r4!, {r0, r1, r2, r3}
 638 0052 CDF80100 		str	r0, [sp, #1]	@ unaligned
 639 0056 CDF80510 		str	r1, [sp, #5]	@ unaligned
 640 005a CDF80920 		str	r2, [sp, #9]	@ unaligned
 641 005e CDF80D30 		str	r3, [sp, #13]	@ unaligned
 642 0062 2A46     		mov	r2, r5
 643 0064 3549     		ldr	r1, .L55+12
 644 0066 0DF11100 		add	r0, sp, #17
 645 006a FFF7FEFF 		bl	sprintf
 646              	.LVL67:
 647 006e 6846     		mov	r0, sp
 648 0070 FFF7FEFF 		bl	LOG_send
 649              	.LVL68:
 650              	.LBE67:
 651              	.LBB68:
 652              	.LBB69:
 290:.\bsw\rte/sc_clock.h ****    *data = signal->value;
 653              		.loc 3 290 0
 654 0074 2E4B     		ldr	r3, .L55
 655 0076 1B6B     		ldr	r3, [r3, #48]
 656 0078 93F82020 		ldrb	r2, [r3, #32]	@ zero_extendqisi2
 657 007c 012A     		cmp	r2, #1
 658 007e 02D1     		bne	.L46
ARM GAS  C:\Users\vboxuser\AppData\Local\Temp\cc6N4dYh.s 			page 27


 659 0080 586A     		ldr	r0, [r3, #36]
 660 0082 FFF7FEFF 		bl	EE_oo_GetResource
 661              	.LVL69:
 662              	.L46:
 291:.\bsw\rte/sc_clock.h ****    if (TRUE == signal->pSigCfg->resourceActive) ReleaseResource(signal->pSigCfg->resource);        
 663              		.loc 3 291 0
 664 0086 2A4E     		ldr	r6, .L55
 665 0088 2AAC     		add	r4, sp, #168
 666              	.LVL70:
 667 008a 3546     		mov	r5, r6
 668 008c 0FCD     		ldmia	r5!, {r0, r1, r2, r3}
 669 008e 0FC4     		stmia	r4!, {r0, r1, r2, r3}
 670              	.LVL71:
 671 0090 0FCD     		ldmia	r5!, {r0, r1, r2, r3}
 672 0092 0FC4     		stmia	r4!, {r0, r1, r2, r3}
 673              	.LVL72:
 674 0094 95E80300 		ldmia	r5, {r0, r1}
 675 0098 84E80300 		stmia	r4, {r0, r1}
 676              		.loc 3 292 0
 677 009c 336B     		ldr	r3, [r6, #48]
 678 009e 93F82020 		ldrb	r2, [r3, #32]	@ zero_extendqisi2
 679 00a2 012A     		cmp	r2, #1
 680 00a4 02D1     		bne	.L47
 681 00a6 586A     		ldr	r0, [r3, #36]
 682 00a8 FFF7FEFF 		bl	EE_oo_ReleaseResource
 683              	.LVL73:
 684              	.L47:
 685 00ac 6C46     		mov	r4, sp
 686 00ae 2AAD     		add	r5, sp, #168
 687 00b0 0FCD     		ldmia	r5!, {r0, r1, r2, r3}
 688 00b2 0FC4     		stmia	r4!, {r0, r1, r2, r3}
 689 00b4 0FCD     		ldmia	r5!, {r0, r1, r2, r3}
 690 00b6 0FC4     		stmia	r4!, {r0, r1, r2, r3}
 691 00b8 95E80300 		ldmia	r5, {r0, r1}
 692 00bc 84E80300 		stmia	r4, {r0, r1}
 693              	.LVL74:
 694              	.LBE69:
 695              	.LBE68:
 696              	.LBB70:
 697              	.LBB71:
 293:.\bsw\rte/sc_clock.h **** 
 294:.\bsw\rte/sc_clock.h ****    return RC_SUCCESS;                                                                   
 295:.\bsw\rte/sc_clock.h ****    
 296:.\bsw\rte/sc_clock.h **** }                                                                                                  
 297:.\bsw\rte/sc_clock.h ****                                                                                                    
 298:.\bsw\rte/sc_clock.h **** /**
 299:.\bsw\rte/sc_clock.h ****  * Sets a new application value to the passed signal instance by passing the new value.
 300:.\bsw\rte/sc_clock.h ****  * The corresponding driver raw value will be calculated immediately by using the default conversio
 301:.\bsw\rte/sc_clock.h ****  * signal specific scaling function.
 302:.\bsw\rte/sc_clock.h ****  * The signal age will be set to 0 and the new status will be 'RTE_SIGNALSTATUS_VALID'.
 303:.\bsw\rte/sc_clock.h ****  *
 304:.\bsw\rte/sc_clock.h ****  * @param  SC_CLOCK_t * const signal: Pointer to the signal object
 305:.\bsw\rte/sc_clock.h ****  * @param  sc_clock_data_t const value: value for the application data buffer
 306:.\bsw\rte/sc_clock.h ****  * @return RC_t: standard return code, currently only RC_SUCCESS
 307:.\bsw\rte/sc_clock.h ****  *
 308:.\bsw\rte/sc_clock.h ****  **/
 309:.\bsw\rte/sc_clock.h **** inline RC_t RTE_SC_CLOCK_set(SC_CLOCK_t * const signal, const SC_CLOCK_data_t value  )
ARM GAS  C:\Users\vboxuser\AppData\Local\Temp\cc6N4dYh.s 			page 28


 310:.\bsw\rte/sc_clock.h **** {
 311:.\bsw\rte/sc_clock.h **** 
 312:.\bsw\rte/sc_clock.h ****    RC_t ret = RC_SUCCESS;
 313:.\bsw\rte/sc_clock.h ****    size_t taskNum=0;
 314:.\bsw\rte/sc_clock.h **** 
 315:.\bsw\rte/sc_clock.h **** 
 316:.\bsw\rte/sc_clock.h ****    if (TRUE == signal->pSigCfg->resourceActive) GetResource(signal->pSigCfg->resource);
 698              		.loc 3 316 0
 699 00c0 1B4B     		ldr	r3, .L55
 700 00c2 1B6B     		ldr	r3, [r3, #48]
 701 00c4 93F82020 		ldrb	r2, [r3, #32]	@ zero_extendqisi2
 702 00c8 012A     		cmp	r2, #1
 703 00ca 02D1     		bne	.L48
 704 00cc 586A     		ldr	r0, [r3, #36]
 705 00ce FFF7FEFF 		bl	EE_oo_GetResource
 706              	.LVL75:
 707              	.L48:
 317:.\bsw\rte/sc_clock.h ****    signal->value  = value;
 708              		.loc 3 317 0
 709 00d2 174E     		ldr	r6, .L55
 710 00d4 3446     		mov	r4, r6
 711 00d6 6D46     		mov	r5, sp
 712 00d8 0FCD     		ldmia	r5!, {r0, r1, r2, r3}
 713 00da 0FC4     		stmia	r4!, {r0, r1, r2, r3}
 714 00dc 0FCD     		ldmia	r5!, {r0, r1, r2, r3}
 715 00de 0FC4     		stmia	r4!, {r0, r1, r2, r3}
 716 00e0 95E80300 		ldmia	r5, {r0, r1}
 717 00e4 84E80300 		stmia	r4, {r0, r1}
 318:.\bsw\rte/sc_clock.h ****    signal->age    = 0;
 718              		.loc 3 318 0
 719 00e8 0023     		movs	r3, #0
 720 00ea F362     		str	r3, [r6, #44]
 319:.\bsw\rte/sc_clock.h ****    signal->status = RTE_SIGNALSTATUS_VALID;
 721              		.loc 3 319 0
 722 00ec 0223     		movs	r3, #2
 723 00ee 86F82830 		strb	r3, [r6, #40]
 320:.\bsw\rte/sc_clock.h ****    if (TRUE == signal->pSigCfg->resourceActive) ReleaseResource(signal->pSigCfg->resource);
 724              		.loc 3 320 0
 725 00f2 336B     		ldr	r3, [r6, #48]
 726 00f4 93F82020 		ldrb	r2, [r3, #32]	@ zero_extendqisi2
 727 00f8 012A     		cmp	r2, #1
 728 00fa 02D1     		bne	.L49
 729 00fc 586A     		ldr	r0, [r3, #36]
 730 00fe FFF7FEFF 		bl	EE_oo_ReleaseResource
 731              	.LVL76:
 732              	.L49:
 321:.\bsw\rte/sc_clock.h **** 
 322:.\bsw\rte/sc_clock.h ****    //Pointer to the Taskarray, containing the tasks receiving the onUpdate events
 323:.\bsw\rte/sc_clock.h ****    TaskTypeArray* pTaskArray = signal->pSigCfg->onUpdateTasks;
 733              		.loc 3 323 0
 734 0102 0B4B     		ldr	r3, .L55
 735 0104 1B6B     		ldr	r3, [r3, #48]
 736 0106 5D69     		ldr	r5, [r3, #20]
 737              	.LVL77:
 324:.\bsw\rte/sc_clock.h **** 
 325:.\bsw\rte/sc_clock.h ****    if (0 != signal->pSigCfg->evOnUpdate && NULL != pTaskArray){
 738              		.loc 3 325 0
ARM GAS  C:\Users\vboxuser\AppData\Local\Temp\cc6N4dYh.s 			page 29


 739 0108 9B68     		ldr	r3, [r3, #8]
 740 010a 73B1     		cbz	r3, .L43
 741 010c 3DB9     		cbnz	r5, .L53
 742 010e 0CE0     		b	.L43
 743              	.LVL78:
 744              	.L52:
 745              	.LBB72:
 326:.\bsw\rte/sc_clock.h ****       for( taskNum=0 ; taskNum < signal->pSigCfg->onUpdateTaskCount ;taskNum++){
 327:.\bsw\rte/sc_clock.h **** 		  
 328:.\bsw\rte/sc_clock.h ****           TaskType task = (*pTaskArray)[taskNum];
 329:.\bsw\rte/sc_clock.h **** 	      SetEvent( task, signal->pSigCfg->evOnUpdate);
 746              		.loc 3 329 0
 747 0110 9968     		ldr	r1, [r3, #8]
 748 0112 55F82400 		ldr	r0, [r5, r4, lsl #2]
 749 0116 FFF7FEFF 		bl	EE_oo_SetEvent
 750              	.LVL79:
 751              	.LBE72:
 326:.\bsw\rte/sc_clock.h ****       for( taskNum=0 ; taskNum < signal->pSigCfg->onUpdateTaskCount ;taskNum++){
 752              		.loc 3 326 0
 753 011a 0134     		adds	r4, r4, #1
 754              	.LVL80:
 755 011c 00E0     		b	.L51
 756              	.LVL81:
 757              	.L53:
 325:.\bsw\rte/sc_clock.h ****       for( taskNum=0 ; taskNum < signal->pSigCfg->onUpdateTaskCount ;taskNum++){
 758              		.loc 3 325 0
 759 011e 0024     		movs	r4, #0
 760              	.LVL82:
 761              	.L51:
 326:.\bsw\rte/sc_clock.h ****       for( taskNum=0 ; taskNum < signal->pSigCfg->onUpdateTaskCount ;taskNum++){
 762              		.loc 3 326 0
 763 0120 034B     		ldr	r3, .L55
 764 0122 1B6B     		ldr	r3, [r3, #48]
 765 0124 1A69     		ldr	r2, [r3, #16]
 766 0126 9442     		cmp	r4, r2
 767 0128 F2D3     		bcc	.L52
 768              	.LVL83:
 769              	.L43:
 770              	.LBE71:
 771              	.LBE70:
 158:asw/swc_clock.c ****     
 159:asw/swc_clock.c ****     //Get the latest clock data after running the state machine ( as the clock signal has a statefu
 160:asw/swc_clock.c ****     //Clock data was changed during state machine transition
 161:asw/swc_clock.c **** 
 162:asw/swc_clock.c ****     data = SC_CLOCK_INIT_DATA;
 163:asw/swc_clock.c **** 
 164:asw/swc_clock.c ****     RTE_SC_CLOCK_getThreadSafe(&SO_CLOCK_signal,&data);
 165:asw/swc_clock.c **** 
 166:asw/swc_clock.c ****     //Write the latest clock data back to clock signal
 167:asw/swc_clock.c ****     RC_t result = RTE_SC_CLOCK_set(&SO_CLOCK_signal,data);
 168:asw/swc_clock.c ****     if(result != RC_SUCCESS){
 169:asw/swc_clock.c **** 
 170:asw/swc_clock.c ****         // Todo: error handling
 171:asw/swc_clock.c **** 
 172:asw/swc_clock.c ****     }
 173:asw/swc_clock.c ****     /* USER CODE END CLOCK_control_run */
 174:asw/swc_clock.c **** }
ARM GAS  C:\Users\vboxuser\AppData\Local\Temp\cc6N4dYh.s 			page 30


 772              		.loc 1 174 0
 773 012a 34B0     		add	sp, sp, #208
 774              		.cfi_def_cfa_offset 16
 775              		@ sp needed
 776 012c 70BD     		pop	{r4, r5, r6, pc}
 777              	.LVL84:
 778              	.L56:
 779 012e 00BF     		.align	2
 780              	.L55:
 781 0130 00000000 		.word	SO_CLOCK_signal
 782 0134 00000000 		.word	SO_EVENT_signal
 783 0138 28000000 		.word	.LC4
 784 013c 24000000 		.word	.LC5
 785              		.cfi_endproc
 786              	.LFE137:
 787              		.size	CLOCK_control_run, .-CLOCK_control_run
 788              		.section	.text.CLOCK_display_run,"ax",%progbits
 789              		.align	2
 790              		.global	CLOCK_display_run
 791              		.thumb
 792              		.thumb_func
 793              		.type	CLOCK_display_run, %function
 794              	CLOCK_display_run:
 795              	.LFB138:
 175:asw/swc_clock.c **** 
 176:asw/swc_clock.c **** /*
 177:asw/swc_clock.c ****  * component: swc_Clock
 178:asw/swc_clock.c ****  * cycletime: 250
 179:asw/swc_clock.c ****  * description: Runnable display on TFT
 180:asw/swc_clock.c ****  * events: 
 181:asw/swc_clock.c ****  * name: CLOCK_display_run
 182:asw/swc_clock.c ****  * shortname: display
 183:asw/swc_clock.c ****  * signalIN: so_clock
 184:asw/swc_clock.c ****  * signalOUT: 
 185:asw/swc_clock.c ****  * task: tsk_hmi
 186:asw/swc_clock.c ****  */
 187:asw/swc_clock.c **** void CLOCK_display_run(RTE_event ev){
 796              		.loc 1 187 0
 797              		.cfi_startproc
 798              		@ args = 0, pretend = 0, frame = 80
 799              		@ frame_needed = 0, uses_anonymous_args = 0
 800              	.LVL85:
 801 0000 70B5     		push	{r4, r5, r6, lr}
 802              		.cfi_def_cfa_offset 16
 803              		.cfi_offset 4, -16
 804              		.cfi_offset 5, -12
 805              		.cfi_offset 6, -8
 806              		.cfi_offset 14, -4
 807 0002 94B0     		sub	sp, sp, #80
 808              		.cfi_def_cfa_offset 96
 809              	.LVL86:
 810              	.LBB73:
 811              	.LBB74:
 290:.\bsw\rte/sc_clock.h ****    *data = signal->value;
 812              		.loc 3 290 0
 813 0004 324B     		ldr	r3, .L68
 814 0006 1B6B     		ldr	r3, [r3, #48]
ARM GAS  C:\Users\vboxuser\AppData\Local\Temp\cc6N4dYh.s 			page 31


 815 0008 93F82020 		ldrb	r2, [r3, #32]	@ zero_extendqisi2
 816 000c 012A     		cmp	r2, #1
 817 000e 02D1     		bne	.L58
 818 0010 586A     		ldr	r0, [r3, #36]
 819              	.LVL87:
 820 0012 FFF7FEFF 		bl	EE_oo_GetResource
 821              	.LVL88:
 822              	.L58:
 291:.\bsw\rte/sc_clock.h ****    if (TRUE == signal->pSigCfg->resourceActive) ReleaseResource(signal->pSigCfg->resource);        
 823              		.loc 3 291 0
 824 0016 2E4E     		ldr	r6, .L68
 825 0018 0AAC     		add	r4, sp, #40
 826              	.LVL89:
 827 001a 3546     		mov	r5, r6
 828 001c 0FCD     		ldmia	r5!, {r0, r1, r2, r3}
 829 001e 0FC4     		stmia	r4!, {r0, r1, r2, r3}
 830              	.LVL90:
 831 0020 0FCD     		ldmia	r5!, {r0, r1, r2, r3}
 832 0022 0FC4     		stmia	r4!, {r0, r1, r2, r3}
 833              	.LVL91:
 834 0024 95E80300 		ldmia	r5, {r0, r1}
 835 0028 84E80300 		stmia	r4, {r0, r1}
 292:.\bsw\rte/sc_clock.h **** 
 836              		.loc 3 292 0
 837 002c 336B     		ldr	r3, [r6, #48]
 838 002e 93F82020 		ldrb	r2, [r3, #32]	@ zero_extendqisi2
 839 0032 012A     		cmp	r2, #1
 840 0034 02D1     		bne	.L59
 841 0036 586A     		ldr	r0, [r3, #36]
 842 0038 FFF7FEFF 		bl	EE_oo_ReleaseResource
 843              	.LVL92:
 844              	.L59:
 845 003c 6C46     		mov	r4, sp
 846 003e 0AAD     		add	r5, sp, #40
 847 0040 0FCD     		ldmia	r5!, {r0, r1, r2, r3}
 848 0042 0FC4     		stmia	r4!, {r0, r1, r2, r3}
 849 0044 0FCD     		ldmia	r5!, {r0, r1, r2, r3}
 850 0046 0FC4     		stmia	r4!, {r0, r1, r2, r3}
 851 0048 95E80300 		ldmia	r5, {r0, r1}
 852 004c 84E80300 		stmia	r4, {r0, r1}
 853              	.LVL93:
 854              	.LBE74:
 855              	.LBE73:
 856              	.LBB75:
 857              	.LBB76:
 316:.\bsw\rte/sc_clock.h ****    signal->value  = value;
 858              		.loc 3 316 0
 859 0050 204B     		ldr	r3, .L68+4
 860 0052 1B6B     		ldr	r3, [r3, #48]
 861 0054 93F82020 		ldrb	r2, [r3, #32]	@ zero_extendqisi2
 862 0058 012A     		cmp	r2, #1
 863 005a 02D1     		bne	.L60
 864 005c 586A     		ldr	r0, [r3, #36]
 865 005e FFF7FEFF 		bl	EE_oo_GetResource
 866              	.LVL94:
 867              	.L60:
 317:.\bsw\rte/sc_clock.h ****    signal->age    = 0;
ARM GAS  C:\Users\vboxuser\AppData\Local\Temp\cc6N4dYh.s 			page 32


 868              		.loc 3 317 0
 869 0062 1C4E     		ldr	r6, .L68+4
 870 0064 3446     		mov	r4, r6
 871 0066 6D46     		mov	r5, sp
 872 0068 0FCD     		ldmia	r5!, {r0, r1, r2, r3}
 873 006a 0FC4     		stmia	r4!, {r0, r1, r2, r3}
 874 006c 0FCD     		ldmia	r5!, {r0, r1, r2, r3}
 875 006e 0FC4     		stmia	r4!, {r0, r1, r2, r3}
 876 0070 95E80300 		ldmia	r5, {r0, r1}
 877 0074 84E80300 		stmia	r4, {r0, r1}
 318:.\bsw\rte/sc_clock.h ****    signal->status = RTE_SIGNALSTATUS_VALID;
 878              		.loc 3 318 0
 879 0078 0023     		movs	r3, #0
 880 007a F362     		str	r3, [r6, #44]
 319:.\bsw\rte/sc_clock.h ****    if (TRUE == signal->pSigCfg->resourceActive) ReleaseResource(signal->pSigCfg->resource);
 881              		.loc 3 319 0
 882 007c 0223     		movs	r3, #2
 883 007e 86F82830 		strb	r3, [r6, #40]
 320:.\bsw\rte/sc_clock.h **** 
 884              		.loc 3 320 0
 885 0082 336B     		ldr	r3, [r6, #48]
 886 0084 93F82020 		ldrb	r2, [r3, #32]	@ zero_extendqisi2
 887 0088 012A     		cmp	r2, #1
 888 008a 02D1     		bne	.L61
 889 008c 586A     		ldr	r0, [r3, #36]
 890 008e FFF7FEFF 		bl	EE_oo_ReleaseResource
 891              	.LVL95:
 892              	.L61:
 323:.\bsw\rte/sc_clock.h **** 
 893              		.loc 3 323 0
 894 0092 104B     		ldr	r3, .L68+4
 895 0094 1B6B     		ldr	r3, [r3, #48]
 896 0096 5D69     		ldr	r5, [r3, #20]
 897              	.LVL96:
 325:.\bsw\rte/sc_clock.h ****       for( taskNum=0 ; taskNum < signal->pSigCfg->onUpdateTaskCount ;taskNum++){
 898              		.loc 3 325 0
 899 0098 9B68     		ldr	r3, [r3, #8]
 900 009a 73B1     		cbz	r3, .L62
 901 009c 3DB9     		cbnz	r5, .L66
 902 009e 0CE0     		b	.L62
 903              	.LVL97:
 904              	.L64:
 905              	.LBB77:
 906              		.loc 3 329 0
 907 00a0 9968     		ldr	r1, [r3, #8]
 908 00a2 55F82400 		ldr	r0, [r5, r4, lsl #2]
 909 00a6 FFF7FEFF 		bl	EE_oo_SetEvent
 910              	.LVL98:
 911              	.LBE77:
 326:.\bsw\rte/sc_clock.h **** 		  
 912              		.loc 3 326 0
 913 00aa 0134     		adds	r4, r4, #1
 914              	.LVL99:
 915 00ac 00E0     		b	.L63
 916              	.LVL100:
 917              	.L66:
 325:.\bsw\rte/sc_clock.h ****       for( taskNum=0 ; taskNum < signal->pSigCfg->onUpdateTaskCount ;taskNum++){
ARM GAS  C:\Users\vboxuser\AppData\Local\Temp\cc6N4dYh.s 			page 33


 918              		.loc 3 325 0
 919 00ae 0024     		movs	r4, #0
 920              	.LVL101:
 921              	.L63:
 326:.\bsw\rte/sc_clock.h **** 		  
 922              		.loc 3 326 0
 923 00b0 084B     		ldr	r3, .L68+4
 924 00b2 1B6B     		ldr	r3, [r3, #48]
 925 00b4 1A69     		ldr	r2, [r3, #16]
 926 00b6 9442     		cmp	r4, r2
 927 00b8 F2D3     		bcc	.L64
 928              	.LVL102:
 929              	.L62:
 930              	.LBE76:
 931              	.LBE75:
 932              	.LBB78:
 933              	.LBB79:
 330:.\bsw\rte/sc_clock.h ****       }
 331:.\bsw\rte/sc_clock.h ****    }
 332:.\bsw\rte/sc_clock.h **** 
 333:.\bsw\rte/sc_clock.h ****    return ret;
 334:.\bsw\rte/sc_clock.h **** }                                                                                                  
 335:.\bsw\rte/sc_clock.h ****                                                                                                    
 336:.\bsw\rte/sc_clock.h ****                                                                                                    
 337:.\bsw\rte/sc_clock.h **** /**************************************************************************************************
 338:.\bsw\rte/sc_clock.h **** /* Call functions to the connected drivers																			*/
 339:.\bsw\rte/sc_clock.h **** /**************************************************************************************************
 340:.\bsw\rte/sc_clock.h **** 
 341:.\bsw\rte/sc_clock.h ****                                                                                                    
 342:.\bsw\rte/sc_clock.h **** /**
 343:.\bsw\rte/sc_clock.h ****  *  Calls the connected driver interface to get a new value.
 344:.\bsw\rte/sc_clock.h ****  *
 345:.\bsw\rte/sc_clock.h ****  * @param SC_CLOCK_t * const signal: Pointer to the signal object
 346:.\bsw\rte/sc_clock.h ****  * @return  RC_t: Return value of the driver call
 347:.\bsw\rte/sc_clock.h ****  *
 348:.\bsw\rte/sc_clock.h ****  */
 349:.\bsw\rte/sc_clock.h **** inline RC_t RTE_SC_CLOCK_pullPort( SC_CLOCK_t * const signal )
 350:.\bsw\rte/sc_clock.h **** {                                                                                                  
 351:.\bsw\rte/sc_clock.h ****    RC_t ret = RC_SUCCESS;
 352:.\bsw\rte/sc_clock.h **** 
 353:.\bsw\rte/sc_clock.h ****                                                                                                    
 354:.\bsw\rte/sc_clock.h ****    if ( NULL != signal->pSigCfg->inDriver )
 355:.\bsw\rte/sc_clock.h ****    {
 356:.\bsw\rte/sc_clock.h **** 	  SC_CLOCK_data_t value = signal->value;
 357:.\bsw\rte/sc_clock.h ****       ret = signal->pSigCfg->inDriver(&value);
 358:.\bsw\rte/sc_clock.h ****                                                                                                    
 359:.\bsw\rte/sc_clock.h ****       if ( ret == RC_SUCCESS )                                                                     
 360:.\bsw\rte/sc_clock.h ****       {
 361:.\bsw\rte/sc_clock.h ****     	  //Critical Section
 362:.\bsw\rte/sc_clock.h ****     	  RTE_SC_CLOCK_set(signal, value);
 363:.\bsw\rte/sc_clock.h ****       }
 364:.\bsw\rte/sc_clock.h ****       else
 365:.\bsw\rte/sc_clock.h ****       {
 366:.\bsw\rte/sc_clock.h **** 		  //Signal is invalid. Error event (if present) will be fired
 367:.\bsw\rte/sc_clock.h **** 		  RTE_SC_CLOCK_setStatus(signal, RTE_SIGNALSTATUS_INVALID);
 368:.\bsw\rte/sc_clock.h ****       }
 369:.\bsw\rte/sc_clock.h **** 
ARM GAS  C:\Users\vboxuser\AppData\Local\Temp\cc6N4dYh.s 			page 34


 370:.\bsw\rte/sc_clock.h ****    }                                                                                               
 371:.\bsw\rte/sc_clock.h ****                                                                                                    
 372:.\bsw\rte/sc_clock.h ****    return ret;                                                                                     
 373:.\bsw\rte/sc_clock.h **** }                                                                                                  
 374:.\bsw\rte/sc_clock.h ****                                                                                                    
 375:.\bsw\rte/sc_clock.h **** /**
 376:.\bsw\rte/sc_clock.h ****  *  Calls the connected driver interfaces to send a value. Value will not be sent if it is INVALID.
 377:.\bsw\rte/sc_clock.h ****  *
 378:.\bsw\rte/sc_clock.h ****  * @param SC_CLOCK_t * const signal: Pointer to the signal object
 379:.\bsw\rte/sc_clock.h ****  * @return  RC_t: Return value of the driver call
 380:.\bsw\rte/sc_clock.h ****  *
 381:.\bsw\rte/sc_clock.h ****  **/
 382:.\bsw\rte/sc_clock.h **** inline RC_t RTE_SC_CLOCK_pushPort( const SC_CLOCK_t * const signal )
 383:.\bsw\rte/sc_clock.h **** {                                                                                                  
 384:.\bsw\rte/sc_clock.h ****    RC_t ret = RC_ERROR;
 385:.\bsw\rte/sc_clock.h **** 
 386:.\bsw\rte/sc_clock.h ****    if (RTE_SIGNALSTATUS_VALID == signal->status)
 934              		.loc 3 386 0
 935 00ba 064B     		ldr	r3, .L68+4
 936 00bc 93F82830 		ldrb	r3, [r3, #40]	@ zero_extendqisi2
 937 00c0 022B     		cmp	r3, #2
 938 00c2 03D1     		bne	.L57
 387:.\bsw\rte/sc_clock.h ****    {
 388:.\bsw\rte/sc_clock.h **** 	   ret = signal->pSigCfg->outDriver(&(signal->value));
 939              		.loc 3 388 0
 940 00c4 0348     		ldr	r0, .L68+4
 941 00c6 036B     		ldr	r3, [r0, #48]
 942 00c8 5B68     		ldr	r3, [r3, #4]
 943 00ca 9847     		blx	r3
 944              	.LVL103:
 945              	.L57:
 946              	.LBE79:
 947              	.LBE78:
 188:asw/swc_clock.c **** 	
 189:asw/swc_clock.c **** 	/* USER CODE START CLOCK_display_run */
 190:asw/swc_clock.c ****     //Read the clock data
 191:asw/swc_clock.c **** 
 192:asw/swc_clock.c ****     SC_CLOCK_data_t clockData = SC_CLOCK_INIT_DATA;
 193:asw/swc_clock.c **** 
 194:asw/swc_clock.c ****     RTE_SC_CLOCK_getThreadSafe(&SO_CLOCK_signal,&clockData);
 195:asw/swc_clock.c **** 
 196:asw/swc_clock.c ****     
 197:asw/swc_clock.c **** 
 198:asw/swc_clock.c ****     //Transfer the clock data to clock display signal to run on lower priority hmi task
 199:asw/swc_clock.c **** 
 200:asw/swc_clock.c ****     RTE_SC_CLOCK_set(&SO_DISPLAY_signal,clockData);
 201:asw/swc_clock.c **** 
 202:asw/swc_clock.c ****     //Call the lower level TFT driver to display the clock data
 203:asw/swc_clock.c **** 
 204:asw/swc_clock.c ****     RTE_SC_CLOCK_pushPort(&SO_DISPLAY_signal);
 205:asw/swc_clock.c ****     /* USER CODE END CLOCK_display_run */
 206:asw/swc_clock.c **** }
 948              		.loc 1 206 0
 949 00cc 14B0     		add	sp, sp, #80
 950              		.cfi_def_cfa_offset 16
 951              		@ sp needed
 952 00ce 70BD     		pop	{r4, r5, r6, pc}
ARM GAS  C:\Users\vboxuser\AppData\Local\Temp\cc6N4dYh.s 			page 35


 953              	.L69:
 954              		.align	2
 955              	.L68:
 956 00d0 00000000 		.word	SO_CLOCK_signal
 957 00d4 00000000 		.word	SO_DISPLAY_signal
 958              		.cfi_endproc
 959              	.LFE138:
 960              		.size	CLOCK_display_run, .-CLOCK_display_run
 961              		.section	.rodata.str1.4,"aMS",%progbits,1
 962              		.align	2
 963              	.LC1:
 964 0000 44656275 		.ascii	"Debug\000"
 964      6700
 965 0006 0000     		.space	2
 966              	.LC2:
 967 0008 31204D69 		.ascii	"1 Min Elapsed\000"
 967      6E20456C 
 967      61707365 
 967      6400
 968 0016 0000     		.space	2
 969              	.LC3:
 970 0018 4B657920 		.ascii	"Key Left\000"
 970      4C656674 
 970      00
 971 0021 000000   		.space	3
 972              	.LC5:
 973 0024 256400   		.ascii	"%d\000"
 974 0027 00       		.space	1
 975              	.LC4:
 976 0028 50726F63 		.ascii	"Processed event\000"
 976      65737365 
 976      64206576 
 976      656E7400 
 977              		.bss
 978              		.align	1
 979              		.set	.LANCHOR0,. + 0
 980              		.type	timeElapsed.8294, %object
 981              		.size	timeElapsed.8294, 2
 982              	timeElapsed.8294:
 983 0000 0000     		.space	2
 984              		.type	shortEvent250msCount.8295, %object
 985              		.size	shortEvent250msCount.8295, 2
 986              	shortEvent250msCount.8295:
 987 0002 0000     		.space	2
 988              		.type	leftButtonElapsed.8292, %object
 989              		.size	leftButtonElapsed.8292, 2
 990              	leftButtonElapsed.8292:
 991 0004 0000     		.space	2
 992              		.type	rightButtonElapsed.8293, %object
 993              		.size	rightButtonElapsed.8293, 2
 994              	rightButtonElapsed.8293:
 995 0006 0000     		.space	2
 996              		.text
 997              	.Letext0:
 998              		.file 4 "c:\\program files (x86)\\cypress\\psoc creator\\4.4\\psoc creator\\import\\gnu\\arm\\5.4.
 999              		.file 5 "c:\\program files (x86)\\cypress\\psoc creator\\4.4\\psoc creator\\import\\gnu\\arm\\5.4.
 1000              		.file 6 "c:\\program files (x86)\\cypress\\psoc creator\\4.4\\psoc creator\\import\\gnu\\arm\\5.4.
ARM GAS  C:\Users\vboxuser\AppData\Local\Temp\cc6N4dYh.s 			page 36


 1001              		.file 7 "Generated_Source\\PSoC5/ErikaOS_1_common_ee_types.inc"
 1002              		.file 8 "Generated_Source\\PSoC5/ErikaOS_1_cortex_mx_ee_cpu.inc"
 1003              		.file 9 "Generated_Source\\PSoC5/ErikaOS_1_ee_oo_common.inc"
 1004              		.file 10 ".\\bsw/global.h"
 1005              		.file 11 ".\\bsw\\rte/rte_types.h"
 1006              		.file 12 ".\\bsw\\rte/rte.h"
 1007              		.file 13 ".\\bsw\\rte/sc_event_type.h"
 1008              		.file 14 ".\\asw/statemachine.h"
 1009              		.file 15 ".\\bsw\\tft/tft.h"
 1010              		.file 16 ".\\bsw\\rte/sc_clock_type.h"
 1011              		.file 17 ".\\bsw\\Services/logging.h"
 1012              		.file 18 "Generated_Source\\PSoC5/ErikaOS_1_ee_oo_intfunc.inc"
 1013              		.file 19 "Generated_Source\\PSoC5/ErikaOS_1_cortex_mx_ee_context.inc"
 1014              		.file 20 "Generated_Source\\PSoC5/ErikaOS_1_common_ee_primitives.inc"
 1015              		.file 21 "Generated_Source\\PSoC5/core_cm3.h"
 1016              		.file 22 ".\\bsw\\rte/sp_common.h"
 1017              		.file 23 "Generated_Source\\PSoC5/ErikaOS_1_ee_oo_kernel.inc"
 1018              		.file 24 "Generated_Source\\PSoC5/BUTTON_3.h"
 1019              		.file 25 "Generated_Source\\PSoC5/BUTTON_4.h"
 1020              		.file 26 "c:\\program files (x86)\\cypress\\psoc creator\\4.4\\psoc creator\\import\\gnu\\arm\\5.4