ARM GAS  C:\Users\vboxuser\AppData\Local\Temp\ccfW9Y1U.s 			page 1


   1              		.syntax unified
   2              		.cpu cortex-m3
   3              		.fpu softvfp
   4              		.eabi_attribute 20, 1
   5              		.eabi_attribute 21, 1
   6              		.eabi_attribute 23, 3
   7              		.eabi_attribute 24, 1
   8              		.eabi_attribute 25, 1
   9              		.eabi_attribute 26, 1
  10              		.eabi_attribute 30, 1
  11              		.eabi_attribute 34, 1
  12              		.eabi_attribute 18, 4
  13              		.thumb
  14              		.syntax unified
  15              		.file	"watchdog.c"
  16              		.text
  17              	.Ltext0:
  18              		.cfi_sections	.debug_frame
  19              		.section	.text.WD_Start,"ax",%progbits
  20              		.align	2
  21              		.global	WD_Start
  22              		.thumb
  23              		.thumb_func
  24              		.type	WD_Start, %function
  25              	WD_Start:
  26              	.LFB114:
  27              		.file 1 "bsw\\LabBoard\\watchdog.c"
   1:bsw\LabBoard/watchdog.c **** /**
   2:bsw\LabBoard/watchdog.c **** * \file <filename>
   3:bsw\LabBoard/watchdog.c **** * \author <author-name>
   4:bsw\LabBoard/watchdog.c **** * \date <date>
   5:bsw\LabBoard/watchdog.c **** *
   6:bsw\LabBoard/watchdog.c **** * \brief <Symbolic File name>
   7:bsw\LabBoard/watchdog.c **** *
   8:bsw\LabBoard/watchdog.c **** * \copyright Copyright ©2016
   9:bsw\LabBoard/watchdog.c **** * Department of electrical engineering and information technology, Hochschule Darmstadt - Universit
  10:bsw\LabBoard/watchdog.c **** * Permission to use, copy, modify, and distribute this software and its documentation for education
  11:bsw\LabBoard/watchdog.c **** * (unless permitted by h_da) and official h_da projects, is hereby granted for enrolled students of
  12:bsw\LabBoard/watchdog.c **** * this paragraph and the following paragraph appear in all copies, modifications, and distributions
  13:bsw\LabBoard/watchdog.c **** * Contact Prof.Dr.-Ing. Peter Fromm, peter.fromm@h-da.de, Birkenweg 8 64295 Darmstadt - GERMANY for
  14:bsw\LabBoard/watchdog.c **** *
  15:bsw\LabBoard/watchdog.c **** * \warning This software is a PROTOTYPE version and is not designed or intended for use in producti
  16:bsw\LabBoard/watchdog.c **** * The user represents and warrants that it will NOT use or redistribute the Software for such purpo
  17:bsw\LabBoard/watchdog.c **** * This prototype is for research purposes only. This software is provided "AS IS," without a warran
  18:bsw\LabBoard/watchdog.c **** */
  19:bsw\LabBoard/watchdog.c **** 
  20:bsw\LabBoard/watchdog.c **** /*****************************************************************************/
  21:bsw\LabBoard/watchdog.c **** /* Include files                                                             */
  22:bsw\LabBoard/watchdog.c **** /*****************************************************************************/
  23:bsw\LabBoard/watchdog.c **** 
  24:bsw\LabBoard/watchdog.c **** #include "watchdog.h"
  25:bsw\LabBoard/watchdog.c **** #include "project.h"
  26:bsw\LabBoard/watchdog.c **** #include "logging.h"
  27:bsw\LabBoard/watchdog.c **** #include <stdio.h>
  28:bsw\LabBoard/watchdog.c **** #include <stdlib.h>
  29:bsw\LabBoard/watchdog.c **** /*****************************************************************************/
  30:bsw\LabBoard/watchdog.c **** /* Local pre-processor symbols/macros ('#define')                            */
ARM GAS  C:\Users\vboxuser\AppData\Local\Temp\ccfW9Y1U.s 			page 2


  31:bsw\LabBoard/watchdog.c **** /*****************************************************************************/
  32:bsw\LabBoard/watchdog.c **** 
  33:bsw\LabBoard/watchdog.c **** /*****************************************************************************/
  34:bsw\LabBoard/watchdog.c **** /* Global variable definitions (declared in header file with 'extern')       */
  35:bsw\LabBoard/watchdog.c **** /*****************************************************************************/
  36:bsw\LabBoard/watchdog.c **** 
  37:bsw\LabBoard/watchdog.c **** /*****************************************************************************/
  38:bsw\LabBoard/watchdog.c **** /* Local type definitions ('typedef')                                        */
  39:bsw\LabBoard/watchdog.c **** /*****************************************************************************/
  40:bsw\LabBoard/watchdog.c **** 
  41:bsw\LabBoard/watchdog.c **** /*****************************************************************************/
  42:bsw\LabBoard/watchdog.c **** /* Local variable definitions ('static')                                     */
  43:bsw\LabBoard/watchdog.c **** /*****************************************************************************/
  44:bsw\LabBoard/watchdog.c **** 
  45:bsw\LabBoard/watchdog.c **** 
  46:bsw\LabBoard/watchdog.c **** 
  47:bsw\LabBoard/watchdog.c **** /*****************************************************************************/
  48:bsw\LabBoard/watchdog.c **** /* Local function prototypes ('static')                                      */
  49:bsw\LabBoard/watchdog.c **** /*****************************************************************************/
  50:bsw\LabBoard/watchdog.c **** static int8_t WD_RunnableAliveBitField;
  51:bsw\LabBoard/watchdog.c **** 
  52:bsw\LabBoard/watchdog.c **** /*****************************************************************************/
  53:bsw\LabBoard/watchdog.c **** /* Function implementation - global ('extern') and local ('static')          */
  54:bsw\LabBoard/watchdog.c **** /*****************************************************************************/
  55:bsw\LabBoard/watchdog.c **** 
  56:bsw\LabBoard/watchdog.c **** 
  57:bsw\LabBoard/watchdog.c **** 
  58:bsw\LabBoard/watchdog.c **** 
  59:bsw\LabBoard/watchdog.c **** /**
  60:bsw\LabBoard/watchdog.c ****  * Activate the Watchdog trigger
  61:bsw\LabBoard/watchdog.c ****  * \param WDT_Timeout_t - [IN] Timeout period
  62:bsw\LabBoard/watchdog.c ****  * \return RC_SUCCESS
  63:bsw\LabBoard/watchdog.c ****  */
  64:bsw\LabBoard/watchdog.c **** 
  65:bsw\LabBoard/watchdog.c **** RC_t WD_Start(WDT_Timeout_t timeout){
  28              		.loc 1 65 0
  29              		.cfi_startproc
  30              		@ args = 0, pretend = 0, frame = 0
  31              		@ frame_needed = 0, uses_anonymous_args = 0
  32              	.LVL0:
  33 0000 08B5     		push	{r3, lr}
  34              		.cfi_def_cfa_offset 8
  35              		.cfi_offset 3, -8
  36              		.cfi_offset 14, -4
  66:bsw\LabBoard/watchdog.c ****     CyWdtStart(timeout, CYWDT_LPMODE_NOCHANGE);
  37              		.loc 1 66 0
  38 0002 0021     		movs	r1, #0
  39 0004 FFF7FEFF 		bl	CyWdtStart
  40              	.LVL1:
  67:bsw\LabBoard/watchdog.c ****     return RC_SUCCESS;
  68:bsw\LabBoard/watchdog.c **** }
  41              		.loc 1 68 0
  42 0008 0020     		movs	r0, #0
  43 000a 08BD     		pop	{r3, pc}
  44              		.cfi_endproc
  45              	.LFE114:
  46              		.size	WD_Start, .-WD_Start
ARM GAS  C:\Users\vboxuser\AppData\Local\Temp\ccfW9Y1U.s 			page 3


  47              		.section	.text.WD_Trigger,"ax",%progbits
  48              		.align	2
  49              		.global	WD_Trigger
  50              		.thumb
  51              		.thumb_func
  52              		.type	WD_Trigger, %function
  53              	WD_Trigger:
  54              	.LFB115:
  69:bsw\LabBoard/watchdog.c **** 
  70:bsw\LabBoard/watchdog.c **** 
  71:bsw\LabBoard/watchdog.c **** 
  72:bsw\LabBoard/watchdog.c **** /**
  73:bsw\LabBoard/watchdog.c ****  * Service the Watchdog trigger
  74:bsw\LabBoard/watchdog.c ****  
  75:bsw\LabBoard/watchdog.c ****  * \return RC_SUCCESS
  76:bsw\LabBoard/watchdog.c **** */
  77:bsw\LabBoard/watchdog.c **** RC_t WD_Trigger(){
  55              		.loc 1 77 0
  56              		.cfi_startproc
  57              		@ args = 0, pretend = 0, frame = 0
  58              		@ frame_needed = 0, uses_anonymous_args = 0
  59 0000 08B5     		push	{r3, lr}
  60              		.cfi_def_cfa_offset 8
  61              		.cfi_offset 3, -8
  62              		.cfi_offset 14, -4
  78:bsw\LabBoard/watchdog.c ****     
  79:bsw\LabBoard/watchdog.c ****     if(WD_RunnableAliveBitField == 0x0f) // 11111 5 runnables alive, TFT is on to do list, set 4 ru
  63              		.loc 1 79 0
  64 0002 064B     		ldr	r3, .L6
  65 0004 93F90030 		ldrsb	r3, [r3]
  66 0008 0F2B     		cmp	r3, #15
  67 000a 04D1     		bne	.L4
  80:bsw\LabBoard/watchdog.c ****     {
  81:bsw\LabBoard/watchdog.c ****         CyWdtClear();
  68              		.loc 1 81 0
  69 000c FFF7FEFF 		bl	CyWdtClear
  70              	.LVL2:
  82:bsw\LabBoard/watchdog.c ****         WD_RunnableAliveBitField = 0; // reset bit field
  71              		.loc 1 82 0
  72 0010 0022     		movs	r2, #0
  73 0012 024B     		ldr	r3, .L6
  74 0014 1A70     		strb	r2, [r3]
  75              	.L4:
  83:bsw\LabBoard/watchdog.c ****     }    
  84:bsw\LabBoard/watchdog.c ****     return RC_SUCCESS;
  85:bsw\LabBoard/watchdog.c **** }
  76              		.loc 1 85 0
  77 0016 0020     		movs	r0, #0
  78 0018 08BD     		pop	{r3, pc}
  79              	.L7:
  80 001a 00BF     		.align	2
  81              	.L6:
  82 001c 00000000 		.word	.LANCHOR0
  83              		.cfi_endproc
  84              	.LFE115:
  85              		.size	WD_Trigger, .-WD_Trigger
  86              		.section	.text.WD_Alive,"ax",%progbits
ARM GAS  C:\Users\vboxuser\AppData\Local\Temp\ccfW9Y1U.s 			page 4


  87              		.align	2
  88              		.global	WD_Alive
  89              		.thumb
  90              		.thumb_func
  91              		.type	WD_Alive, %function
  92              	WD_Alive:
  93              	.LFB116:
  86:bsw\LabBoard/watchdog.c **** 
  87:bsw\LabBoard/watchdog.c **** 
  88:bsw\LabBoard/watchdog.c **** /**
  89:bsw\LabBoard/watchdog.c **** * This function sets the bit at the corresponding position ( 8 bit datatype) 
  90:bsw\LabBoard/watchdog.c **** * Can monitor upto 8 alive runnables
  91:bsw\LabBoard/watchdog.c **** * It is called by every runnable using a uniqe position.
  92:bsw\LabBoard/watchdog.c **** * 0 = readJoystick, 1 = calcControl, 2 = setEngine, 3 = setBrakeLight , 4 = HMI
  93:bsw\LabBoard/watchdog.c **** * @return RC_SUCCESS
  94:bsw\LabBoard/watchdog.c **** */
  95:bsw\LabBoard/watchdog.c **** 
  96:bsw\LabBoard/watchdog.c **** 
  97:bsw\LabBoard/watchdog.c **** RC_t WD_Alive(uint8_t myBitPosition){
  94              		.loc 1 97 0
  95              		.cfi_startproc
  96              		@ args = 0, pretend = 0, frame = 0
  97              		@ frame_needed = 0, uses_anonymous_args = 0
  98              		@ link register save eliminated.
  99              	.LVL3:
  98:bsw\LabBoard/watchdog.c ****     
  99:bsw\LabBoard/watchdog.c ****     WD_RunnableAliveBitField |= (1U) << myBitPosition;
 100              		.loc 1 99 0
 101 0000 0123     		movs	r3, #1
 102 0002 03FA00F0 		lsl	r0, r3, r0
 103              	.LVL4:
 104 0006 034A     		ldr	r2, .L9
 105 0008 1378     		ldrb	r3, [r2]	@ zero_extendqisi2
 106 000a 1843     		orrs	r0, r0, r3
 107 000c 1070     		strb	r0, [r2]
 100:bsw\LabBoard/watchdog.c ****     return RC_SUCCESS;
 101:bsw\LabBoard/watchdog.c **** }
 108              		.loc 1 101 0
 109 000e 0020     		movs	r0, #0
 110 0010 7047     		bx	lr
 111              	.L10:
 112 0012 00BF     		.align	2
 113              	.L9:
 114 0014 00000000 		.word	.LANCHOR0
 115              		.cfi_endproc
 116              	.LFE116:
 117              		.size	WD_Alive, .-WD_Alive
 118              		.section	.text.WD_CheckResetBit,"ax",%progbits
 119              		.align	2
 120              		.global	WD_CheckResetBit
 121              		.thumb
 122              		.thumb_func
 123              		.type	WD_CheckResetBit, %function
 124              	WD_CheckResetBit:
 125              	.LFB117:
 102:bsw\LabBoard/watchdog.c **** 
 103:bsw\LabBoard/watchdog.c **** 
ARM GAS  C:\Users\vboxuser\AppData\Local\Temp\ccfW9Y1U.s 			page 5


 104:bsw\LabBoard/watchdog.c **** /**
 105:bsw\LabBoard/watchdog.c ****  * Check the watchdog bit
 106:bsw\LabBoard/watchdog.c **** 
 107:bsw\LabBoard/watchdog.c ****  * \return TRUE if watchdog reset bit was set
 108:bsw\LabBoard/watchdog.c ****  */
 109:bsw\LabBoard/watchdog.c **** 
 110:bsw\LabBoard/watchdog.c **** boolean_t WD_CheckResetBit(){
 126              		.loc 1 110 0
 127              		.cfi_startproc
 128              		@ args = 0, pretend = 0, frame = 0
 129              		@ frame_needed = 0, uses_anonymous_args = 0
 130              		@ link register save eliminated.
 111:bsw\LabBoard/watchdog.c ****     if(CyResetStatus & CY_RESET_WD) // Check the Watchdog register to determine the cause of the re
 131              		.loc 1 111 0
 132 0000 044B     		ldr	r3, .L13
 133 0002 1B78     		ldrb	r3, [r3]	@ zero_extendqisi2
 134 0004 03F00803 		and	r3, r3, #8
 135 0008 03F0FF00 		and	r0, r3, #255
 136 000c 03B1     		cbz	r3, .L12
 112:bsw\LabBoard/watchdog.c ****     {
 113:bsw\LabBoard/watchdog.c ****         return TRUE;
 137              		.loc 1 113 0
 138 000e 0120     		movs	r0, #1
 139              	.L12:
 114:bsw\LabBoard/watchdog.c ****     }
 115:bsw\LabBoard/watchdog.c ****     else
 116:bsw\LabBoard/watchdog.c ****     {
 117:bsw\LabBoard/watchdog.c ****         return FALSE;
 118:bsw\LabBoard/watchdog.c ****     }
 119:bsw\LabBoard/watchdog.c **** }
 140              		.loc 1 119 0
 141 0010 7047     		bx	lr
 142              	.L14:
 143 0012 00BF     		.align	2
 144              	.L13:
 145 0014 00000000 		.word	CyResetStatus
 146              		.cfi_endproc
 147              	.LFE117:
 148              		.size	WD_CheckResetBit, .-WD_CheckResetBit
 149              		.bss
 150              		.set	.LANCHOR0,. + 0
 151              		.type	WD_RunnableAliveBitField, %object
 152              		.size	WD_RunnableAliveBitField, 1
 153              	WD_RunnableAliveBitField:
 154 0000 00       		.space	1
 155              		.text
 156              	.Letext0:
 157              		.file 2 ".\\bsw/global.h"
 158              		.file 3 "c:\\program files (x86)\\cypress\\psoc creator\\4.4\\psoc creator\\import\\gnu\\arm\\5.4.
 159              		.file 4 "c:\\program files (x86)\\cypress\\psoc creator\\4.4\\psoc creator\\import\\gnu\\arm\\5.4.
 160              		.file 5 "Generated_Source\\PSoC5/cytypes.h"
 161              		.file 6 "Generated_Source\\PSoC5/ErikaOS_1_common_ee_types.inc"
 162              		.file 7 "Generated_Source\\PSoC5/ErikaOS_1_cortex_mx_ee_cpu.inc"
 163              		.file 8 "bsw\\LabBoard\\watchdog.h"
 164              		.file 9 "Generated_Source\\PSoC5/ErikaOS_1_ee_oo_intfunc.inc"
 165              		.file 10 "Generated_Source\\PSoC5/ErikaOS_1_cortex_mx_ee_context.inc"
 166              		.file 11 "Generated_Source\\PSoC5/ErikaOS_1_common_ee_primitives.inc"
ARM GAS  C:\Users\vboxuser\AppData\Local\Temp\ccfW9Y1U.s 			page 6


 167              		.file 12 "Generated_Source\\PSoC5/CyLib.h"
 168              		.file 13 "Generated_Source\\PSoC5/core_cm3.h"