ARM GAS  C:\Users\vboxuser\AppData\Local\Temp\cc4jgDzz.s 			page 1


   1              		.syntax unified
   2              		.cpu cortex-m3
   3              		.fpu softvfp
   4              		.eabi_attribute 20, 1
   5              		.eabi_attribute 21, 1
   6              		.eabi_attribute 23, 3
   7              		.eabi_attribute 24, 1
   8              		.eabi_attribute 25, 1
   9              		.eabi_attribute 26, 1
  10              		.eabi_attribute 30, 1
  11              		.eabi_attribute 34, 1
  12              		.eabi_attribute 18, 4
  13              		.thumb
  14              		.syntax unified
  15              		.file	"ArcadianLight.c"
  16              		.text
  17              	.Ltext0:
  18              		.cfi_sections	.debug_frame
  19              		.section	.text.FADER__IsCurrentLedFullyFaded,"ax",%progbits
  20              		.align	2
  21              		.thumb
  22              		.thumb_func
  23              		.type	FADER__IsCurrentLedFullyFaded, %function
  24              	FADER__IsCurrentLedFullyFaded:
  25              	.LFB115:
  26              		.file 1 "asw\\ArcadianLight.c"
   1:asw/ArcadianLight.c **** /**
   2:asw/ArcadianLight.c **** * \file ArcadianLight.c
   3:asw/ArcadianLight.c **** * \author tienanh
   4:asw/ArcadianLight.c **** * \date 30.11.2023
   5:asw/ArcadianLight.c **** *
   6:asw/ArcadianLight.c **** * \brief <Symbolic File name>
   7:asw/ArcadianLight.c **** *
   8:asw/ArcadianLight.c **** * \copyright Copyright ©2016
   9:asw/ArcadianLight.c **** * Department of electrical engineering and information technology, Hochschule Darmstadt - Universit
  10:asw/ArcadianLight.c **** * Permission to use, copy, modify, and distribute this software and its documentation for education
  11:asw/ArcadianLight.c **** * (unless permitted by h_da) and official h_da projects, is hereby granted for enrolled students of
  12:asw/ArcadianLight.c **** * this paragraph and the following paragraph appear in all copies, modifications, and distributions
  13:asw/ArcadianLight.c **** * Contact Prof.Dr.-Ing. Peter Fromm, peter.fromm@h-da.de, Birkenweg 8 64295 Darmstadt - GERMANY for
  14:asw/ArcadianLight.c **** *
  15:asw/ArcadianLight.c **** * \warning This software is a PROTOTYPE version and is not designed or intended for use in producti
  16:asw/ArcadianLight.c **** * The user represents and warrants that it will NOT use or redistribute the Software for such purpo
  17:asw/ArcadianLight.c **** * This prototype is for research purposes only. This software is provided "AS IS," without a warran
  18:asw/ArcadianLight.c **** */
  19:asw/ArcadianLight.c **** 
  20:asw/ArcadianLight.c **** /*****************************************************************************/
  21:asw/ArcadianLight.c **** /* Include files                                                             */
  22:asw/ArcadianLight.c **** /*****************************************************************************/
  23:asw/ArcadianLight.c **** 
  24:asw/ArcadianLight.c **** #include "ArcadianLight.h"
  25:asw/ArcadianLight.c **** #include "project.h"
  26:asw/ArcadianLight.c **** #include "led.h"
  27:asw/ArcadianLight.c **** #include "logging.h"
  28:asw/ArcadianLight.c **** /*****************************************************************************/
  29:asw/ArcadianLight.c **** /* Local pre-processor symbols/macros ('#define')                            */
  30:asw/ArcadianLight.c **** /*****************************************************************************/
  31:asw/ArcadianLight.c **** #define MIN_BRIGHTNESS 0
ARM GAS  C:\Users\vboxuser\AppData\Local\Temp\cc4jgDzz.s 			page 2


  32:asw/ArcadianLight.c **** #define MAX_BRIGHTNESS 255
  33:asw/ArcadianLight.c **** // FADE_STEP can be set only to values like 1, 3, 5, 15, 17, 51, 85, and 255, which are divisible b
  34:asw/ArcadianLight.c **** #define FADE_STEP 3
  35:asw/ArcadianLight.c **** 
  36:asw/ArcadianLight.c **** #define NUM_LEDS (sizeof(leds) / sizeof(leds[0]))
  37:asw/ArcadianLight.c **** /*****************************************************************************/
  38:asw/ArcadianLight.c **** /* Global variable definitions (declared in header file with 'extern')       */
  39:asw/ArcadianLight.c **** /*****************************************************************************/
  40:asw/ArcadianLight.c **** 
  41:asw/ArcadianLight.c **** /*****************************************************************************/
  42:asw/ArcadianLight.c **** /* Local type definitions ('typedef')                                        */
  43:asw/ArcadianLight.c **** /*****************************************************************************/
  44:asw/ArcadianLight.c **** 
  45:asw/ArcadianLight.c **** typedef struct sGlowRGB {
  46:asw/ArcadianLight.c ****     uint8_t redValue;
  47:asw/ArcadianLight.c ****     uint8_t greenValue;
  48:asw/ArcadianLight.c ****     uint8_t blueValue;
  49:asw/ArcadianLight.c ****     uint16_t timeInMS;
  50:asw/ArcadianLight.c **** } RG__Glow_t;
  51:asw/ArcadianLight.c **** 
  52:asw/ArcadianLight.c **** 
  53:asw/ArcadianLight.c **** const RG__Glow_t RG__glowtable_1[] = {
  54:asw/ArcadianLight.c **** //Red Green Blue TimeInMS
  55:asw/ArcadianLight.c ****     {255,0,0,500},
  56:asw/ArcadianLight.c ****     {0,255, 0,500},
  57:asw/ArcadianLight.c ****     {0,0,255, 500},
  58:asw/ArcadianLight.c ****     {0,0,0,100},
  59:asw/ArcadianLight.c ****     {255,255, 255, 100},
  60:asw/ArcadianLight.c ****     {0,0,0,100},
  61:asw/ArcadianLight.c ****     {255,255, 255, 100},
  62:asw/ArcadianLight.c ****     {0,0,0,100},
  63:asw/ArcadianLight.c ****     {255,255, 255, 100}
  64:asw/ArcadianLight.c **** };
  65:asw/ArcadianLight.c **** 
  66:asw/ArcadianLight.c **** typedef enum {
  67:asw/ArcadianLight.c ****     LED_STATE_FADE_IN,
  68:asw/ArcadianLight.c ****     LED_STATE_FADE_OUT
  69:asw/ArcadianLight.c **** } FADER_State_t;
  70:asw/ArcadianLight.c **** 
  71:asw/ArcadianLight.c **** 
  72:asw/ArcadianLight.c **** typedef struct {
  73:asw/ArcadianLight.c ****     LED_id_t ledId;
  74:asw/ArcadianLight.c ****     uint8_t brightness;
  75:asw/ArcadianLight.c ****     FADER_State_t state;
  76:asw/ArcadianLight.c **** } RG_FADER_Control_t;
  77:asw/ArcadianLight.c **** 
  78:asw/ArcadianLight.c **** typedef enum {
  79:asw/ArcadianLight.c ****     DIRECTION_ASCENDING,
  80:asw/ArcadianLight.c ****     DIRECTION_DESCENDING
  81:asw/ArcadianLight.c **** } FADER_Direction_t;
  82:asw/ArcadianLight.c **** 
  83:asw/ArcadianLight.c **** 
  84:asw/ArcadianLight.c **** 
  85:asw/ArcadianLight.c **** /*****************************************************************************/
  86:asw/ArcadianLight.c **** /* Local variable definitions ('static')                                     */
  87:asw/ArcadianLight.c **** /*****************************************************************************/
  88:asw/ArcadianLight.c **** 
ARM GAS  C:\Users\vboxuser\AppData\Local\Temp\cc4jgDzz.s 			page 3


  89:asw/ArcadianLight.c **** static RG_FADER_Control_t leds[] = {
  90:asw/ArcadianLight.c ****     { LED_GREEN, MIN_BRIGHTNESS, LED_STATE_FADE_IN},
  91:asw/ArcadianLight.c ****     { LED_YELLOW, MIN_BRIGHTNESS, LED_STATE_FADE_OUT},
  92:asw/ArcadianLight.c ****     { LED_RED, MIN_BRIGHTNESS, LED_STATE_FADE_OUT}
  93:asw/ArcadianLight.c **** };
  94:asw/ArcadianLight.c **** 
  95:asw/ArcadianLight.c **** 
  96:asw/ArcadianLight.c **** /*****************************************************************************/
  97:asw/ArcadianLight.c **** /* Local function prototypes ('static')                                      */
  98:asw/ArcadianLight.c **** /*****************************************************************************/
  99:asw/ArcadianLight.c **** 
 100:asw/ArcadianLight.c **** /**
 101:asw/ArcadianLight.c ****  * @brief Checks if the current LED has fully faded.
 102:asw/ArcadianLight.c ****  *
 103:asw/ArcadianLight.c ****  * @return boolean_t Returns TRUE if the current LED has fully faded, otherwise FALSE.
 104:asw/ArcadianLight.c ****  */
 105:asw/ArcadianLight.c **** static boolean_t FADER__IsCurrentLedFullyFaded();
 106:asw/ArcadianLight.c **** 
 107:asw/ArcadianLight.c **** /**
 108:asw/ArcadianLight.c ****  * @brief Updates the brightness of the specified LED.
 109:asw/ArcadianLight.c ****  * 
 110:asw/ArcadianLight.c ****  * If the LED is in the LED_STATE_FADE_IN state, its brightness will be increased. 
 111:asw/ArcadianLight.c ****  * Conversely, if it's in the LED_STATE_FADE_OUT state, the brightness will be decreased.
 112:asw/ArcadianLight.c ****  * @param led Pointer to the RG_FADER_Control_t structure representing the LED to update.
 113:asw/ArcadianLight.c ****  */
 114:asw/ArcadianLight.c **** static RC_t FADER__UpdateLED(RG_FADER_Control_t *led);
 115:asw/ArcadianLight.c **** 
 116:asw/ArcadianLight.c **** /**
 117:asw/ArcadianLight.c ****  * @brief Moves to the next LED index in the sequence.
 118:asw/ArcadianLight.c ****  * The function determines the direction of the sequence and updates the next LED index accordingly
 119:asw/ArcadianLight.c ****  * @return RC_t Returns RC_SUCCESS if the index was successfully updated
 120:asw/ArcadianLight.c ****  */
 121:asw/ArcadianLight.c **** static RC_t FADER__MoveToNextLedIndex();
 122:asw/ArcadianLight.c **** 
 123:asw/ArcadianLight.c **** 
 124:asw/ArcadianLight.c **** /*****************************************************************************/
 125:asw/ArcadianLight.c **** /* Function implementation - global ('extern') and local ('static')          */
 126:asw/ArcadianLight.c **** /*****************************************************************************/
 127:asw/ArcadianLight.c **** 
 128:asw/ArcadianLight.c **** /**
 129:asw/ArcadianLight.c ****  * <Description>
 130:asw/ArcadianLight.c ****  * \param <first para>
 131:asw/ArcadianLight.c ****  * \return <return value>
 132:asw/ArcadianLight.c ****  */
 133:asw/ArcadianLight.c **** 
 134:asw/ArcadianLight.c **** static RC_t FADER__UpdateLED(RG_FADER_Control_t *led) 
 135:asw/ArcadianLight.c **** {
 136:asw/ArcadianLight.c ****     switch(led->state)
 137:asw/ArcadianLight.c ****     {
 138:asw/ArcadianLight.c ****     case LED_STATE_FADE_IN:
 139:asw/ArcadianLight.c ****         if (led->brightness < MAX_BRIGHTNESS) 
 140:asw/ArcadianLight.c ****         {
 141:asw/ArcadianLight.c ****             led->brightness += FADE_STEP;
 142:asw/ArcadianLight.c ****         } 
 143:asw/ArcadianLight.c ****         else 
 144:asw/ArcadianLight.c ****         {
 145:asw/ArcadianLight.c ****             led->state = LED_STATE_FADE_OUT; // set to other state after reaching maximum brightnes
ARM GAS  C:\Users\vboxuser\AppData\Local\Temp\cc4jgDzz.s 			page 4


 146:asw/ArcadianLight.c ****         }
 147:asw/ArcadianLight.c ****         break;
 148:asw/ArcadianLight.c ****     case LED_STATE_FADE_OUT:
 149:asw/ArcadianLight.c ****         if (led->brightness > MIN_BRIGHTNESS) 
 150:asw/ArcadianLight.c ****         {
 151:asw/ArcadianLight.c ****             led->brightness -= FADE_STEP;
 152:asw/ArcadianLight.c ****         } 
 153:asw/ArcadianLight.c ****         else 
 154:asw/ArcadianLight.c ****         {
 155:asw/ArcadianLight.c ****             led->state = LED_STATE_FADE_IN; // Ready to fade in next cycle    
 156:asw/ArcadianLight.c ****         }
 157:asw/ArcadianLight.c ****         break;
 158:asw/ArcadianLight.c ****     }
 159:asw/ArcadianLight.c ****     LED_Brightness_Set(led->ledId, led->brightness);
 160:asw/ArcadianLight.c ****     return RC_SUCCESS;
 161:asw/ArcadianLight.c **** }
 162:asw/ArcadianLight.c **** 
 163:asw/ArcadianLight.c **** 
 164:asw/ArcadianLight.c **** static uint8_t currentLedIndex = 0;    // Index of the current LED
 165:asw/ArcadianLight.c **** static FADER_Direction_t currentDirection = 1;          // Direction of cycling: 1 for ascending, 0
 166:asw/ArcadianLight.c **** 
 167:asw/ArcadianLight.c **** 
 168:asw/ArcadianLight.c **** static boolean_t FADER__IsCurrentLedFullyFaded() {
  27              		.loc 1 168 0
  28              		.cfi_startproc
  29              		@ args = 0, pretend = 0, frame = 0
  30              		@ frame_needed = 0, uses_anonymous_args = 0
  31              		@ link register save eliminated.
 169:asw/ArcadianLight.c ****     return (leds[currentLedIndex].state == LED_STATE_FADE_OUT && leds[currentLedIndex].brightness =
  32              		.loc 1 169 0
  33 0000 094B     		ldr	r3, .L5
  34 0002 1B78     		ldrb	r3, [r3]	@ zero_extendqisi2
  35 0004 03EB4302 		add	r2, r3, r3, lsl #1
  36 0008 0849     		ldr	r1, .L5+4
  37 000a 0A44     		add	r2, r2, r1
  38 000c 9278     		ldrb	r2, [r2, #2]	@ zero_extendqisi2
  39 000e 012A     		cmp	r2, #1
  40 0010 06D1     		bne	.L3
  41              		.loc 1 169 0 is_stmt 0 discriminator 1
  42 0012 03EB4303 		add	r3, r3, r3, lsl #1
  43 0016 0B44     		add	r3, r3, r1
  44 0018 5B78     		ldrb	r3, [r3, #1]	@ zero_extendqisi2
  45 001a 1BB1     		cbz	r3, .L4
  46              		.loc 1 169 0
  47 001c 0020     		movs	r0, #0
  48 001e 7047     		bx	lr
  49              	.L3:
  50 0020 0020     		movs	r0, #0
  51 0022 7047     		bx	lr
  52              	.L4:
  53 0024 0120     		movs	r0, #1
 170:asw/ArcadianLight.c **** }
  54              		.loc 1 170 0 is_stmt 1
  55 0026 7047     		bx	lr
  56              	.L6:
  57              		.align	2
  58              	.L5:
ARM GAS  C:\Users\vboxuser\AppData\Local\Temp\cc4jgDzz.s 			page 5


  59 0028 00000000 		.word	.LANCHOR0
  60 002c 00000000 		.word	.LANCHOR1
  61              		.cfi_endproc
  62              	.LFE115:
  63              		.size	FADER__IsCurrentLedFullyFaded, .-FADER__IsCurrentLedFullyFaded
  64              		.section	.text.FADER__MoveToNextLedIndex,"ax",%progbits
  65              		.align	2
  66              		.thumb
  67              		.thumb_func
  68              		.type	FADER__MoveToNextLedIndex, %function
  69              	FADER__MoveToNextLedIndex:
  70              	.LFB116:
 171:asw/ArcadianLight.c **** 
 172:asw/ArcadianLight.c **** 
 173:asw/ArcadianLight.c **** static RC_t FADER__MoveToNextLedIndex() {
  71              		.loc 1 173 0
  72              		.cfi_startproc
  73              		@ args = 0, pretend = 0, frame = 0
  74              		@ frame_needed = 0, uses_anonymous_args = 0
  75              		@ link register save eliminated.
 174:asw/ArcadianLight.c ****     switch(currentDirection)
  76              		.loc 1 174 0
  77 0000 114B     		ldr	r3, .L13
  78 0002 5B7A     		ldrb	r3, [r3, #9]	@ zero_extendqisi2
  79 0004 13B1     		cbz	r3, .L9
  80 0006 012B     		cmp	r3, #1
  81 0008 0FD0     		beq	.L10
  82 000a 1BE0     		b	.L8
  83              	.L9:
 175:asw/ArcadianLight.c ****     {
 176:asw/ArcadianLight.c ****     case DIRECTION_ASCENDING:
 177:asw/ArcadianLight.c ****         if (currentLedIndex >= NUM_LEDS - 1) 
  84              		.loc 1 177 0
  85 000c 0F4B     		ldr	r3, .L13+4
  86 000e 1B78     		ldrb	r3, [r3]	@ zero_extendqisi2
  87 0010 012B     		cmp	r3, #1
  88 0012 06D9     		bls	.L11
 178:asw/ArcadianLight.c ****         {
 179:asw/ArcadianLight.c ****             currentDirection = DIRECTION_DESCENDING;
  89              		.loc 1 179 0
  90 0014 0121     		movs	r1, #1
  91 0016 0C4A     		ldr	r2, .L13
  92 0018 5172     		strb	r1, [r2, #9]
 180:asw/ArcadianLight.c ****             currentLedIndex--; // Change direction and update index
  93              		.loc 1 180 0
  94 001a 013B     		subs	r3, r3, #1
  95 001c 0B4A     		ldr	r2, .L13+4
  96 001e 1370     		strb	r3, [r2]
  97 0020 10E0     		b	.L8
  98              	.L11:
 181:asw/ArcadianLight.c ****         } 
 182:asw/ArcadianLight.c ****         else 
 183:asw/ArcadianLight.c ****         {
 184:asw/ArcadianLight.c ****             currentLedIndex++; // Continue in the same direction
  99              		.loc 1 184 0
 100 0022 0133     		adds	r3, r3, #1
 101 0024 094A     		ldr	r2, .L13+4
ARM GAS  C:\Users\vboxuser\AppData\Local\Temp\cc4jgDzz.s 			page 6


 102 0026 1370     		strb	r3, [r2]
 103 0028 0CE0     		b	.L8
 104              	.L10:
 185:asw/ArcadianLight.c ****         }
 186:asw/ArcadianLight.c ****         break;
 187:asw/ArcadianLight.c ****     case DIRECTION_DESCENDING:
 188:asw/ArcadianLight.c ****         if (currentLedIndex == 0)
 105              		.loc 1 188 0
 106 002a 084B     		ldr	r3, .L13+4
 107 002c 1B78     		ldrb	r3, [r3]	@ zero_extendqisi2
 108 002e 33B9     		cbnz	r3, .L12
 189:asw/ArcadianLight.c ****         {
 190:asw/ArcadianLight.c ****             currentDirection = DIRECTION_ASCENDING;
 109              		.loc 1 190 0
 110 0030 0021     		movs	r1, #0
 111 0032 054A     		ldr	r2, .L13
 112 0034 5172     		strb	r1, [r2, #9]
 191:asw/ArcadianLight.c ****             currentLedIndex++; // Change direction and update index
 113              		.loc 1 191 0
 114 0036 0133     		adds	r3, r3, #1
 115 0038 044A     		ldr	r2, .L13+4
 116 003a 1370     		strb	r3, [r2]
 117 003c 02E0     		b	.L8
 118              	.L12:
 192:asw/ArcadianLight.c ****         } 
 193:asw/ArcadianLight.c ****         else
 194:asw/ArcadianLight.c ****         {
 195:asw/ArcadianLight.c ****             currentLedIndex--; // Continue in the same direction
 119              		.loc 1 195 0
 120 003e 013B     		subs	r3, r3, #1
 121 0040 024A     		ldr	r2, .L13+4
 122 0042 1370     		strb	r3, [r2]
 123              	.L8:
 196:asw/ArcadianLight.c ****         }
 197:asw/ArcadianLight.c ****         break;
 198:asw/ArcadianLight.c ****     }
 199:asw/ArcadianLight.c ****     return RC_SUCCESS;
 200:asw/ArcadianLight.c ****         
 201:asw/ArcadianLight.c **** 
 202:asw/ArcadianLight.c **** 
 203:asw/ArcadianLight.c **** }
 124              		.loc 1 203 0
 125 0044 0020     		movs	r0, #0
 126 0046 7047     		bx	lr
 127              	.L14:
 128              		.align	2
 129              	.L13:
 130 0048 00000000 		.word	.LANCHOR1
 131 004c 00000000 		.word	.LANCHOR0
 132              		.cfi_endproc
 133              	.LFE116:
 134              		.size	FADER__MoveToNextLedIndex, .-FADER__MoveToNextLedIndex
 135              		.section	.text.FADER__UpdateLED,"ax",%progbits
 136              		.align	2
 137              		.thumb
 138              		.thumb_func
 139              		.type	FADER__UpdateLED, %function
ARM GAS  C:\Users\vboxuser\AppData\Local\Temp\cc4jgDzz.s 			page 7


 140              	FADER__UpdateLED:
 141              	.LFB114:
 135:asw/ArcadianLight.c ****     switch(led->state)
 142              		.loc 1 135 0
 143              		.cfi_startproc
 144              		@ args = 0, pretend = 0, frame = 0
 145              		@ frame_needed = 0, uses_anonymous_args = 0
 146              	.LVL0:
 147 0000 08B5     		push	{r3, lr}
 148              		.cfi_def_cfa_offset 8
 149              		.cfi_offset 3, -8
 150              		.cfi_offset 14, -4
 136:asw/ArcadianLight.c ****     {
 151              		.loc 1 136 0
 152 0002 8378     		ldrb	r3, [r0, #2]	@ zero_extendqisi2
 153 0004 13B1     		cbz	r3, .L17
 154 0006 012B     		cmp	r3, #1
 155 0008 09D0     		beq	.L18
 156 000a 0FE0     		b	.L16
 157              	.L17:
 139:asw/ArcadianLight.c ****         {
 158              		.loc 1 139 0
 159 000c 4378     		ldrb	r3, [r0, #1]	@ zero_extendqisi2
 160 000e FF2B     		cmp	r3, #255
 161 0010 02D0     		beq	.L19
 141:asw/ArcadianLight.c ****         } 
 162              		.loc 1 141 0
 163 0012 0333     		adds	r3, r3, #3
 164 0014 4370     		strb	r3, [r0, #1]
 165 0016 09E0     		b	.L16
 166              	.L19:
 145:asw/ArcadianLight.c ****         }
 167              		.loc 1 145 0
 168 0018 0123     		movs	r3, #1
 169 001a 8370     		strb	r3, [r0, #2]
 170 001c 06E0     		b	.L16
 171              	.L18:
 149:asw/ArcadianLight.c ****         {
 172              		.loc 1 149 0
 173 001e 4378     		ldrb	r3, [r0, #1]	@ zero_extendqisi2
 174 0020 13B1     		cbz	r3, .L20
 151:asw/ArcadianLight.c ****         } 
 175              		.loc 1 151 0
 176 0022 033B     		subs	r3, r3, #3
 177 0024 4370     		strb	r3, [r0, #1]
 178 0026 01E0     		b	.L16
 179              	.L20:
 155:asw/ArcadianLight.c ****         }
 180              		.loc 1 155 0
 181 0028 0023     		movs	r3, #0
 182 002a 8370     		strb	r3, [r0, #2]
 183              	.L16:
 159:asw/ArcadianLight.c ****     return RC_SUCCESS;
 184              		.loc 1 159 0
 185 002c 4178     		ldrb	r1, [r0, #1]	@ zero_extendqisi2
 186 002e 0078     		ldrb	r0, [r0]	@ zero_extendqisi2
 187              	.LVL1:
ARM GAS  C:\Users\vboxuser\AppData\Local\Temp\cc4jgDzz.s 			page 8


 188 0030 FFF7FEFF 		bl	LED_Brightness_Set
 189              	.LVL2:
 161:asw/ArcadianLight.c **** 
 190              		.loc 1 161 0
 191 0034 0020     		movs	r0, #0
 192 0036 08BD     		pop	{r3, pc}
 193              		.cfi_endproc
 194              	.LFE114:
 195              		.size	FADER__UpdateLED, .-FADER__UpdateLED
 196              		.section	.text.RG_Fader_run,"ax",%progbits
 197              		.align	2
 198              		.global	RG_Fader_run
 199              		.thumb
 200              		.thumb_func
 201              		.type	RG_Fader_run, %function
 202              	RG_Fader_run:
 203              	.LFB117:
 204:asw/ArcadianLight.c **** /**
 205:asw/ArcadianLight.c ****  * @brief Run the knight rider LED effect on a set of three LEDs.
 206:asw/ArcadianLight.c ****  *
 207:asw/ArcadianLight.c ****  * This function controls each LED's brightness and creates a back-and-forth scanning
 208:asw/ArcadianLight.c ****  * effect reminiscent of the "Knight Rider" car
 209:asw/ArcadianLight.c ****  *
 210:asw/ArcadianLight.c ****  * @return RC_SUCCESS if running without error
 211:asw/ArcadianLight.c ****  */
 212:asw/ArcadianLight.c **** RC_t RG_Fader_run() {
 204              		.loc 1 212 0
 205              		.cfi_startproc
 206              		@ args = 0, pretend = 0, frame = 0
 207              		@ frame_needed = 0, uses_anonymous_args = 0
 208 0000 08B5     		push	{r3, lr}
 209              		.cfi_def_cfa_offset 8
 210              		.cfi_offset 3, -8
 211              		.cfi_offset 14, -4
 213:asw/ArcadianLight.c **** 
 214:asw/ArcadianLight.c **** 
 215:asw/ArcadianLight.c ****     // Update brightness value of the current LED
 216:asw/ArcadianLight.c ****     FADER__UpdateLED(&leds[currentLedIndex]);
 212              		.loc 1 216 0
 213 0002 074B     		ldr	r3, .L25
 214 0004 1878     		ldrb	r0, [r3]	@ zero_extendqisi2
 215 0006 00EB4000 		add	r0, r0, r0, lsl #1
 216 000a 064B     		ldr	r3, .L25+4
 217 000c 1844     		add	r0, r0, r3
 218 000e FFF7FEFF 		bl	FADER__UpdateLED
 219              	.LVL3:
 217:asw/ArcadianLight.c ****     // check if it's fully faded, then move to next led based on current direction
 218:asw/ArcadianLight.c ****     if (FADER__IsCurrentLedFullyFaded())
 220              		.loc 1 218 0
 221 0012 FFF7FEFF 		bl	FADER__IsCurrentLedFullyFaded
 222              	.LVL4:
 223 0016 08B1     		cbz	r0, .L23
 219:asw/ArcadianLight.c ****     {
 220:asw/ArcadianLight.c ****         FADER__MoveToNextLedIndex();
 224              		.loc 1 220 0
 225 0018 FFF7FEFF 		bl	FADER__MoveToNextLedIndex
 226              	.LVL5:
ARM GAS  C:\Users\vboxuser\AppData\Local\Temp\cc4jgDzz.s 			page 9


 227              	.L23:
 221:asw/ArcadianLight.c ****     }
 222:asw/ArcadianLight.c ****     
 223:asw/ArcadianLight.c ****     return RC_SUCCESS;
 224:asw/ArcadianLight.c **** }
 228              		.loc 1 224 0
 229 001c 0020     		movs	r0, #0
 230 001e 08BD     		pop	{r3, pc}
 231              	.L26:
 232              		.align	2
 233              	.L25:
 234 0020 00000000 		.word	.LANCHOR0
 235 0024 00000000 		.word	.LANCHOR1
 236              		.cfi_endproc
 237              	.LFE117:
 238              		.size	RG_Fader_run, .-RG_Fader_run
 239              		.section	.text.RG_Glower_Init,"ax",%progbits
 240              		.align	2
 241              		.global	RG_Glower_Init
 242              		.thumb
 243              		.thumb_func
 244              		.type	RG_Glower_Init, %function
 245              	RG_Glower_Init:
 246              	.LFB118:
 225:asw/ArcadianLight.c **** /**
 226:asw/ArcadianLight.c ****  * @brief Initialize the RGB LED.
 227:asw/ArcadianLight.c ****  *
 228:asw/ArcadianLight.c ****  * This function initializes the RGB LED system
 229:asw/ArcadianLight.c ****  *
 230:asw/ArcadianLight.c ****  * @return RC_SUCCESS if running without error
 231:asw/ArcadianLight.c ****  */
 232:asw/ArcadianLight.c **** RC_t RG_Glower_Init()
 233:asw/ArcadianLight.c **** {
 247              		.loc 1 233 0
 248              		.cfi_startproc
 249              		@ args = 0, pretend = 0, frame = 0
 250              		@ frame_needed = 0, uses_anonymous_args = 0
 251 0000 08B5     		push	{r3, lr}
 252              		.cfi_def_cfa_offset 8
 253              		.cfi_offset 3, -8
 254              		.cfi_offset 14, -4
 234:asw/ArcadianLight.c ****     LED_RGB_Set(RG__glowtable_1[0].redValue, RG__glowtable_1[0].greenValue, RG__glowtable_1[0].blue
 255              		.loc 1 234 0
 256 0002 0022     		movs	r2, #0
 257 0004 1146     		mov	r1, r2
 258 0006 FF20     		movs	r0, #255
 259 0008 FFF7FEFF 		bl	LED_RGB_Set
 260              	.LVL6:
 235:asw/ArcadianLight.c ****     SetRelAlarm(alrm_waitingTick, RG__glowtable_1[0].timeInMS, 0);
 261              		.loc 1 235 0
 262 000c 0022     		movs	r2, #0
 263 000e 4FF4FA71 		mov	r1, #500
 264 0012 0120     		movs	r0, #1
 265 0014 FFF7FEFF 		bl	EE_oo_SetRelAlarm
 266              	.LVL7:
 236:asw/ArcadianLight.c ****     return RC_SUCCESS;
 237:asw/ArcadianLight.c **** }
ARM GAS  C:\Users\vboxuser\AppData\Local\Temp\cc4jgDzz.s 			page 10


 267              		.loc 1 237 0
 268 0018 0020     		movs	r0, #0
 269 001a 08BD     		pop	{r3, pc}
 270              		.cfi_endproc
 271              	.LFE118:
 272              		.size	RG_Glower_Init, .-RG_Glower_Init
 273              		.section	.text.RG_Glower_run,"ax",%progbits
 274              		.align	2
 275              		.global	RG_Glower_run
 276              		.thumb
 277              		.thumb_func
 278              		.type	RG_Glower_run, %function
 279              	RG_Glower_run:
 280              	.LFB119:
 238:asw/ArcadianLight.c **** 
 239:asw/ArcadianLight.c **** /**
 240:asw/ArcadianLight.c ****  * @brief Run the RGB LED based on a predefined glow table.
 241:asw/ArcadianLight.c ****  *
 242:asw/ArcadianLight.c ****  *
 243:asw/ArcadianLight.c ****  * @return RC_SUCCESS if running without error
 244:asw/ArcadianLight.c ****  */
 245:asw/ArcadianLight.c **** RC_t RG_Glower_run()
 246:asw/ArcadianLight.c **** {
 281              		.loc 1 246 0
 282              		.cfi_startproc
 283              		@ args = 0, pretend = 0, frame = 0
 284              		@ frame_needed = 0, uses_anonymous_args = 0
 285 0000 38B5     		push	{r3, r4, r5, lr}
 286              		.cfi_def_cfa_offset 16
 287              		.cfi_offset 3, -16
 288              		.cfi_offset 4, -12
 289              		.cfi_offset 5, -8
 290              		.cfi_offset 14, -4
 247:asw/ArcadianLight.c ****     static uint8_t currentIndex =0;
 248:asw/ArcadianLight.c ****     // increase to next index on glow table
 249:asw/ArcadianLight.c ****     currentIndex = (currentIndex + 1) % (sizeof(RG__glowtable_1) / sizeof(RG__Glow_t));
 291              		.loc 1 249 0
 292 0002 114C     		ldr	r4, .L31
 293 0004 6278     		ldrb	r2, [r4, #1]	@ zero_extendqisi2
 294 0006 0132     		adds	r2, r2, #1
 295 0008 104B     		ldr	r3, .L31+4
 296 000a A3FB0213 		umull	r1, r3, r3, r2
 297 000e 5B08     		lsrs	r3, r3, #1
 298 0010 03EBC303 		add	r3, r3, r3, lsl #3
 299 0014 D31A     		subs	r3, r2, r3
 300 0016 DBB2     		uxtb	r3, r3
 301 0018 6370     		strb	r3, [r4, #1]
 250:asw/ArcadianLight.c ****     LED_RGB_Set(RG__glowtable_1[currentIndex].redValue,RG__glowtable_1[currentIndex].greenValue, RG
 302              		.loc 1 250 0
 303 001a 0D4D     		ldr	r5, .L31+8
 304 001c 5A00     		lsls	r2, r3, #1
 305 001e D018     		adds	r0, r2, r3
 306 0020 4100     		lsls	r1, r0, #1
 307 0022 0846     		mov	r0, r1
 308 0024 2944     		add	r1, r1, r5
 309 0026 8A78     		ldrb	r2, [r1, #2]	@ zero_extendqisi2
 310 0028 4978     		ldrb	r1, [r1, #1]	@ zero_extendqisi2
ARM GAS  C:\Users\vboxuser\AppData\Local\Temp\cc4jgDzz.s 			page 11


 311 002a 285C     		ldrb	r0, [r5, r0]	@ zero_extendqisi2
 312 002c FFF7FEFF 		bl	LED_RGB_Set
 313              	.LVL8:
 251:asw/ArcadianLight.c ****     // set an alarm that will activate this basic task again after defined time
 252:asw/ArcadianLight.c ****     SetRelAlarm(alrm_waitingTick, RG__glowtable_1[currentIndex].timeInMS, 0);
 314              		.loc 1 252 0
 315 0030 6378     		ldrb	r3, [r4, #1]	@ zero_extendqisi2
 316 0032 03EB4303 		add	r3, r3, r3, lsl #1
 317 0036 5A00     		lsls	r2, r3, #1
 318 0038 1544     		add	r5, r5, r2
 319 003a 0022     		movs	r2, #0
 320 003c A988     		ldrh	r1, [r5, #4]
 321 003e 0120     		movs	r0, #1
 322 0040 FFF7FEFF 		bl	EE_oo_SetRelAlarm
 323              	.LVL9:
 253:asw/ArcadianLight.c **** 
 254:asw/ArcadianLight.c ****     return RC_SUCCESS;
 255:asw/ArcadianLight.c **** }
 324              		.loc 1 255 0
 325 0044 0020     		movs	r0, #0
 326 0046 38BD     		pop	{r3, r4, r5, pc}
 327              	.L32:
 328              		.align	2
 329              	.L31:
 330 0048 00000000 		.word	.LANCHOR0
 331 004c 398EE338 		.word	954437177
 332 0050 00000000 		.word	.LANCHOR2
 333              		.cfi_endproc
 334              	.LFE119:
 335              		.size	RG_Glower_run, .-RG_Glower_run
 336              		.global	RG__glowtable_1
 337              		.section	.rodata
 338              		.align	2
 339              		.set	.LANCHOR2,. + 0
 340              		.type	RG__glowtable_1, %object
 341              		.size	RG__glowtable_1, 54
 342              	RG__glowtable_1:
 343 0000 FF       		.byte	-1
 344 0001 00       		.byte	0
 345 0002 00       		.byte	0
 346 0003 00       		.space	1
 347 0004 F401     		.short	500
 348 0006 00       		.byte	0
 349 0007 FF       		.byte	-1
 350 0008 00       		.byte	0
 351 0009 00       		.space	1
 352 000a F401     		.short	500
 353 000c 00       		.byte	0
 354 000d 00       		.byte	0
 355 000e FF       		.byte	-1
 356 000f 00       		.space	1
 357 0010 F401     		.short	500
 358 0012 00       		.byte	0
 359 0013 00       		.byte	0
 360 0014 00       		.byte	0
 361 0015 00       		.space	1
 362 0016 6400     		.short	100
ARM GAS  C:\Users\vboxuser\AppData\Local\Temp\cc4jgDzz.s 			page 12


 363 0018 FF       		.byte	-1
 364 0019 FF       		.byte	-1
 365 001a FF       		.byte	-1
 366 001b 00       		.space	1
 367 001c 6400     		.short	100
 368 001e 00       		.byte	0
 369 001f 00       		.byte	0
 370 0020 00       		.byte	0
 371 0021 00       		.space	1
 372 0022 6400     		.short	100
 373 0024 FF       		.byte	-1
 374 0025 FF       		.byte	-1
 375 0026 FF       		.byte	-1
 376 0027 00       		.space	1
 377 0028 6400     		.short	100
 378 002a 00       		.byte	0
 379 002b 00       		.byte	0
 380 002c 00       		.byte	0
 381 002d 00       		.space	1
 382 002e 6400     		.short	100
 383 0030 FF       		.byte	-1
 384 0031 FF       		.byte	-1
 385 0032 FF       		.byte	-1
 386 0033 00       		.space	1
 387 0034 6400     		.short	100
 388              		.data
 389              		.align	2
 390              		.set	.LANCHOR1,. + 0
 391              		.type	leds, %object
 392              		.size	leds, 9
 393              	leds:
 394 0000 02       		.byte	2
 395 0001 00       		.byte	0
 396 0002 00       		.byte	0
 397 0003 01       		.byte	1
 398 0004 00       		.byte	0
 399 0005 01       		.byte	1
 400 0006 00       		.byte	0
 401 0007 00       		.byte	0
 402 0008 01       		.byte	1
 403              		.type	currentDirection, %object
 404              		.size	currentDirection, 1
 405              	currentDirection:
 406 0009 01       		.byte	1
 407              		.bss
 408              		.set	.LANCHOR0,. + 0
 409              		.type	currentLedIndex, %object
 410              		.size	currentLedIndex, 1
 411              	currentLedIndex:
 412 0000 00       		.space	1
 413              		.type	currentIndex.7913, %object
 414              		.size	currentIndex.7913, 1
 415              	currentIndex.7913:
 416 0001 00       		.space	1
 417              		.text
 418              	.Letext0:
 419              		.file 2 ".\\bsw/global.h"
ARM GAS  C:\Users\vboxuser\AppData\Local\Temp\cc4jgDzz.s 			page 13


 420              		.file 3 "c:\\program files (x86)\\cypress\\psoc creator\\4.4\\psoc creator\\import\\gnu\\arm\\5.4.
 421              		.file 4 "c:\\program files (x86)\\cypress\\psoc creator\\4.4\\psoc creator\\import\\gnu\\arm\\5.4.
 422              		.file 5 "Generated_Source\\PSoC5/ErikaOS_1_common_ee_types.inc"
 423              		.file 6 "Generated_Source\\PSoC5/ErikaOS_1_cortex_mx_ee_cpu.inc"
 424              		.file 7 ".\\bsw\\LabBoard/led.h"
 425              		.file 8 "Generated_Source\\PSoC5/ErikaOS_1_ee_oo_intfunc.inc"
 426              		.file 9 "Generated_Source\\PSoC5/ErikaOS_1_cortex_mx_ee_context.inc"
 427              		.file 10 "Generated_Source\\PSoC5/ErikaOS_1_common_ee_primitives.inc"
 428              		.file 11 "Generated_Source\\PSoC5/core_cm3.h"
 429              		.file 12 "Generated_Source\\PSoC5/ErikaOS_1_ee_oo_kernel.inc"