ARM GAS  C:\Users\vboxuser\AppData\Local\Temp\cccqcqvJ.s 			page 1


   1              		.syntax unified
   2              		.cpu cortex-m3
   3              		.fpu softvfp
   4              		.eabi_attribute 20, 1
   5              		.eabi_attribute 21, 1
   6              		.eabi_attribute 23, 3
   7              		.eabi_attribute 24, 1
   8              		.eabi_attribute 25, 1
   9              		.eabi_attribute 26, 1
  10              		.eabi_attribute 30, 1
  11              		.eabi_attribute 34, 1
  12              		.eabi_attribute 18, 4
  13              		.thumb
  14              		.syntax unified
  15              		.file	"swc_gaspedal.c"
  16              		.text
  17              	.Ltext0:
  18              		.cfi_sections	.debug_frame
  19              		.section	.text.GASPEDAL_readJoystick_run,"ax",%progbits
  20              		.align	2
  21              		.global	GASPEDAL_readJoystick_run
  22              		.thumb
  23              		.thumb_func
  24              		.type	GASPEDAL_readJoystick_run, %function
  25              	GASPEDAL_readJoystick_run:
  26              	.LFB180:
  27              		.file 1 "asw\\swc_gaspedal.c"
   1:asw/swc_gaspedal.c **** /*
   2:asw/swc_gaspedal.c ****  * Filename: swc_gaspedal.c
   3:asw/swc_gaspedal.c ****  *
   4:asw/swc_gaspedal.c ****  * Author: Autogenerated by H-DA RTE Generator, (c) Prof. Fromm
   5:asw/swc_gaspedal.c ****  *
   6:asw/swc_gaspedal.c ****  * description: Gas Pedal Software Component
   7:asw/swc_gaspedal.c ****  * name: swc_GasPedal
   8:asw/swc_gaspedal.c ****  * shortname: GasPedal
   9:asw/swc_gaspedal.c ****  *
  10:asw/swc_gaspedal.c ****  */
  11:asw/swc_gaspedal.c **** 
  12:asw/swc_gaspedal.c **** #include "project.h"
  13:asw/swc_gaspedal.c **** #include "global.h"
  14:asw/swc_gaspedal.c **** #include "rte.h"
  15:asw/swc_gaspedal.c **** #include "rte_types.h"
  16:asw/swc_gaspedal.c **** #include "swc_gaspedal.h"
  17:asw/swc_gaspedal.c **** 
  18:asw/swc_gaspedal.c **** 
  19:asw/swc_gaspedal.c **** 
  20:asw/swc_gaspedal.c **** /* USER CODE START SWC_GASPEDAL_INCLUDE */
  21:asw/swc_gaspedal.c **** #include "watchdog.h"
  22:asw/swc_gaspedal.c **** /* USER CODE END SWC_GASPEDAL_INCLUDE */
  23:asw/swc_gaspedal.c **** 
  24:asw/swc_gaspedal.c **** 
  25:asw/swc_gaspedal.c **** #include "sp_common.h"
  26:asw/swc_gaspedal.c **** 
  27:asw/swc_gaspedal.c **** /* USER CODE START SWC_GASPEDAL_USERDEFINITIONS */
  28:asw/swc_gaspedal.c **** 
  29:asw/swc_gaspedal.c **** /* USER CODE END SWC_GASPEDAL_USERDEFINITIONS */
  30:asw/swc_gaspedal.c **** 
ARM GAS  C:\Users\vboxuser\AppData\Local\Temp\cccqcqvJ.s 			page 2


  31:asw/swc_gaspedal.c **** 
  32:asw/swc_gaspedal.c **** 
  33:asw/swc_gaspedal.c **** /*
  34:asw/swc_gaspedal.c ****  * component: swc_GasPedal
  35:asw/swc_gaspedal.c ****  * cycletime: 10
  36:asw/swc_gaspedal.c ****  * description: Runnable that reads joystick data value x and y every 10ms and update joystick sign
  37:asw/swc_gaspedal.c ****  * events: 
  38:asw/swc_gaspedal.c ****  * name: GASPEDAL_readJoystick_run
  39:asw/swc_gaspedal.c ****  * shortname: readJoystick
  40:asw/swc_gaspedal.c ****  * signalIN: 
  41:asw/swc_gaspedal.c ****  * signalOUT: so_joystick
  42:asw/swc_gaspedal.c ****  * task: tsk_io
  43:asw/swc_gaspedal.c ****  */
  44:asw/swc_gaspedal.c **** void GASPEDAL_readJoystick_run(RTE_event ev){
  28              		.loc 1 44 0
  29              		.cfi_startproc
  30              		@ args = 0, pretend = 0, frame = 8
  31              		@ frame_needed = 0, uses_anonymous_args = 0
  32              	.LVL0:
  33 0000 30B5     		push	{r4, r5, lr}
  34              		.cfi_def_cfa_offset 12
  35              		.cfi_offset 4, -12
  36              		.cfi_offset 5, -8
  37              		.cfi_offset 14, -4
  38 0002 83B0     		sub	sp, sp, #12
  39              		.cfi_def_cfa_offset 24
  40              	.LVL1:
  41              	.LBB53:
  42              	.LBB54:
  43              		.file 2 ".\\bsw\\rte/sc_joystick.h"
   1:.\bsw\rte/sc_joystick.h **** 
   2:.\bsw\rte/sc_joystick.h **** 
   3:.\bsw\rte/sc_joystick.h **** /**
   4:.\bsw\rte/sc_joystick.h ****  *  file    SC_JOYSTICK_signal.h
   5:.\bsw\rte/sc_joystick.h ****  *
   6:.\bsw\rte/sc_joystick.h ****  *  brief   signal base class for signal sc_joystick
   7:.\bsw\rte/sc_joystick.h ****  *
   8:.\bsw\rte/sc_joystick.h ****  *  author  Autogenerated, Peter Fromm       <peter.fromm@h-da.de>
   9:.\bsw\rte/sc_joystick.h ****  *
  10:.\bsw\rte/sc_joystick.h ****  * description: Joystick signal class
  11:.\bsw\rte/sc_joystick.h ****  * name: sc_joystick
  12:.\bsw\rte/sc_joystick.h ****  * shortname: joystick
  13:.\bsw\rte/sc_joystick.h ****  *
  14:.\bsw\rte/sc_joystick.h ****  */
  15:.\bsw\rte/sc_joystick.h **** 
  16:.\bsw\rte/sc_joystick.h **** 
  17:.\bsw\rte/sc_joystick.h **** 
  18:.\bsw\rte/sc_joystick.h **** #ifndef SC_JOYSTICK_SIGNAL_H_INCLUDED
  19:.\bsw\rte/sc_joystick.h **** #define SC_JOYSTICK_SIGNAL_H_INCLUDED
  20:.\bsw\rte/sc_joystick.h **** 
  21:.\bsw\rte/sc_joystick.h **** /*================================================[ public includes  ]=============================
  22:.\bsw\rte/sc_joystick.h **** #include "global.h"
  23:.\bsw\rte/sc_joystick.h **** #include "project.h"
  24:.\bsw\rte/sc_joystick.h **** #include "rte.h"
  25:.\bsw\rte/sc_joystick.h **** #include "rte_types.h"
  26:.\bsw\rte/sc_joystick.h **** 
  27:.\bsw\rte/sc_joystick.h **** #include "sc_joystick_type.h"
ARM GAS  C:\Users\vboxuser\AppData\Local\Temp\cccqcqvJ.s 			page 3


  28:.\bsw\rte/sc_joystick.h **** 
  29:.\bsw\rte/sc_joystick.h **** 
  30:.\bsw\rte/sc_joystick.h **** /**************************************************************************************************
  31:.\bsw\rte/sc_joystick.h **** /* The driver API block																						*/
  32:.\bsw\rte/sc_joystick.h **** /**************************************************************************************************
  33:.\bsw\rte/sc_joystick.h ****                                                                                                    
  34:.\bsw\rte/sc_joystick.h **** /**
  35:.\bsw\rte/sc_joystick.h ****  *  Definition of function types for driver interfaces.
  36:.\bsw\rte/sc_joystick.h ****  *  I-Port
  37:.\bsw\rte/sc_joystick.h ****  */
  38:.\bsw\rte/sc_joystick.h **** typedef RC_t (*SC_JOYSTICK_driverIn_t)(SC_JOYSTICK_data_t * const);
  39:.\bsw\rte/sc_joystick.h **** 
  40:.\bsw\rte/sc_joystick.h **** /**
  41:.\bsw\rte/sc_joystick.h ****  *  Definition of function types for driver interfaces.
  42:.\bsw\rte/sc_joystick.h ****  *  O-Port
  43:.\bsw\rte/sc_joystick.h ****  */
  44:.\bsw\rte/sc_joystick.h **** typedef RC_t (*SC_JOYSTICK_driverOut_t)( const SC_JOYSTICK_data_t * const);
  45:.\bsw\rte/sc_joystick.h **** 
  46:.\bsw\rte/sc_joystick.h **** 
  47:.\bsw\rte/sc_joystick.h **** /**************************************************************************************************
  48:.\bsw\rte/sc_joystick.h **** /* The signal configuration API block																				*/
  49:.\bsw\rte/sc_joystick.h **** /**************************************************************************************************
  50:.\bsw\rte/sc_joystick.h **** 
  51:.\bsw\rte/sc_joystick.h **** /**
  52:.\bsw\rte/sc_joystick.h ****  * Instances of the struct SC_JOYSTICK_cfg_t represent the signal object configuration.
  53:.\bsw\rte/sc_joystick.h ****  */
  54:.\bsw\rte/sc_joystick.h **** struct SC_JOYSTICK_cfg_s
  55:.\bsw\rte/sc_joystick.h **** {
  56:.\bsw\rte/sc_joystick.h ****     /**
  57:.\bsw\rte/sc_joystick.h ****      * Function pointer to the input driver
  58:.\bsw\rte/sc_joystick.h ****      */
  59:.\bsw\rte/sc_joystick.h ****     SC_JOYSTICK_driverIn_t const inDriver;
  60:.\bsw\rte/sc_joystick.h **** 
  61:.\bsw\rte/sc_joystick.h ****     /**
  62:.\bsw\rte/sc_joystick.h ****      * Function pointer to the output driver table
  63:.\bsw\rte/sc_joystick.h ****      */
  64:.\bsw\rte/sc_joystick.h ****    SC_JOYSTICK_driverOut_t const outDriver;
  65:.\bsw\rte/sc_joystick.h ****    
  66:.\bsw\rte/sc_joystick.h ****     /**
  67:.\bsw\rte/sc_joystick.h ****      * Event onUpdate
  68:.\bsw\rte/sc_joystick.h ****      */
  69:.\bsw\rte/sc_joystick.h ****     EventMaskType const evOnUpdate;
  70:.\bsw\rte/sc_joystick.h ****     
  71:.\bsw\rte/sc_joystick.h ****     
  72:.\bsw\rte/sc_joystick.h ****     /**
  73:.\bsw\rte/sc_joystick.h ****      * Event onError
  74:.\bsw\rte/sc_joystick.h ****      */
  75:.\bsw\rte/sc_joystick.h ****     EventMaskType const evOnError;
  76:.\bsw\rte/sc_joystick.h ****     
  77:.\bsw\rte/sc_joystick.h ****     /**
  78:.\bsw\rte/sc_joystick.h ****      * Task Count onUpdate
  79:.\bsw\rte/sc_joystick.h ****      */
  80:.\bsw\rte/sc_joystick.h ****     size_t const onUpdateTaskCount;
  81:.\bsw\rte/sc_joystick.h **** 
  82:.\bsw\rte/sc_joystick.h ****     /**
  83:.\bsw\rte/sc_joystick.h ****      * Task List onUpdate
  84:.\bsw\rte/sc_joystick.h ****      */
ARM GAS  C:\Users\vboxuser\AppData\Local\Temp\cccqcqvJ.s 			page 4


  85:.\bsw\rte/sc_joystick.h ****     TaskTypeArray* const onUpdateTasks;
  86:.\bsw\rte/sc_joystick.h ****     
  87:.\bsw\rte/sc_joystick.h ****     /**
  88:.\bsw\rte/sc_joystick.h ****      * Task Count onError
  89:.\bsw\rte/sc_joystick.h ****      */
  90:.\bsw\rte/sc_joystick.h ****     size_t const onErrorTaskCount;
  91:.\bsw\rte/sc_joystick.h **** 
  92:.\bsw\rte/sc_joystick.h ****     /**
  93:.\bsw\rte/sc_joystick.h ****      * Task List onError
  94:.\bsw\rte/sc_joystick.h ****      */
  95:.\bsw\rte/sc_joystick.h ****     TaskTypeArray* const onErrorTasks;
  96:.\bsw\rte/sc_joystick.h **** 	
  97:.\bsw\rte/sc_joystick.h **** 	
  98:.\bsw\rte/sc_joystick.h **** 	/**
  99:.\bsw\rte/sc_joystick.h **** 	 * Ressourse is active? We need an additional boolean as a ressource value 0 is valid.
 100:.\bsw\rte/sc_joystick.h **** 	 */
 101:.\bsw\rte/sc_joystick.h **** 	 boolean_t const resourceActive;
 102:.\bsw\rte/sc_joystick.h **** 	 
 103:.\bsw\rte/sc_joystick.h **** 	/**
 104:.\bsw\rte/sc_joystick.h **** 	 * Ressourse 
 105:.\bsw\rte/sc_joystick.h **** 	 */
 106:.\bsw\rte/sc_joystick.h **** 	 ResourceType const resource;
 107:.\bsw\rte/sc_joystick.h **** 
 108:.\bsw\rte/sc_joystick.h **** };                                                                                                 
 109:.\bsw\rte/sc_joystick.h **** typedef const struct SC_JOYSTICK_cfg_s SC_JOYSTICK_cfg_t;
 110:.\bsw\rte/sc_joystick.h ****                               
 111:.\bsw\rte/sc_joystick.h **** /**************************************************************************************************
 112:.\bsw\rte/sc_joystick.h **** /* The data interface block																							*/
 113:.\bsw\rte/sc_joystick.h **** /**************************************************************************************************
 114:.\bsw\rte/sc_joystick.h **** 
 115:.\bsw\rte/sc_joystick.h ****                                                                                                    
 116:.\bsw\rte/sc_joystick.h **** 							  
 117:.\bsw\rte/sc_joystick.h **** /**
 118:.\bsw\rte/sc_joystick.h ****  * Instances of the struct SC_JOYSTICK_t represent the signal objects.
 119:.\bsw\rte/sc_joystick.h ****  * A signal object contains the current application value 'value' as well as relevant meta data.
 120:.\bsw\rte/sc_joystick.h ****  */
 121:.\bsw\rte/sc_joystick.h **** struct SC_JOYSTICK_s
 122:.\bsw\rte/sc_joystick.h **** {                                                                                                  
 123:.\bsw\rte/sc_joystick.h **** 
 124:.\bsw\rte/sc_joystick.h **** 	/**
 125:.\bsw\rte/sc_joystick.h **** 	 * Data buffer for the application value
 126:.\bsw\rte/sc_joystick.h **** 	 */
 127:.\bsw\rte/sc_joystick.h ****     SC_JOYSTICK_data_t value;
 128:.\bsw\rte/sc_joystick.h **** 
 129:.\bsw\rte/sc_joystick.h ****     /**
 130:.\bsw\rte/sc_joystick.h ****      * Current signal status
 131:.\bsw\rte/sc_joystick.h ****      */
 132:.\bsw\rte/sc_joystick.h ****     RTE_signalStatus_t status;
 133:.\bsw\rte/sc_joystick.h **** 
 134:.\bsw\rte/sc_joystick.h ****     /**
 135:.\bsw\rte/sc_joystick.h ****      * Current age of the signal (in calling cycles)
 136:.\bsw\rte/sc_joystick.h ****      */
 137:.\bsw\rte/sc_joystick.h ****     uint32_t age;
 138:.\bsw\rte/sc_joystick.h **** 
 139:.\bsw\rte/sc_joystick.h ****     /**
 140:.\bsw\rte/sc_joystick.h ****      * Pointer to the signal configuration
 141:.\bsw\rte/sc_joystick.h ****      */
ARM GAS  C:\Users\vboxuser\AppData\Local\Temp\cccqcqvJ.s 			page 5


 142:.\bsw\rte/sc_joystick.h **** 	const SC_JOYSTICK_cfg_t * const    pSigCfg;
 143:.\bsw\rte/sc_joystick.h **** 
 144:.\bsw\rte/sc_joystick.h **** };                                                                                                 
 145:.\bsw\rte/sc_joystick.h **** typedef struct SC_JOYSTICK_s SC_JOYSTICK_t;
 146:.\bsw\rte/sc_joystick.h **** 
 147:.\bsw\rte/sc_joystick.h **** /**************************************************************************************************
 148:.\bsw\rte/sc_joystick.h **** /* Signal initialisation   																							*/
 149:.\bsw\rte/sc_joystick.h **** /**************************************************************************************************
 150:.\bsw\rte/sc_joystick.h **** 
 151:.\bsw\rte/sc_joystick.h **** /**
 152:.\bsw\rte/sc_joystick.h ****  * Initializes a signal instance with a passed init value.
 153:.\bsw\rte/sc_joystick.h ****  * Depending on the configured conversion or scaling function the raw_value will be calculated.
 154:.\bsw\rte/sc_joystick.h ****  * Signal status will change from RTE_SIGNALSTATUS_STARTUP to RTE_SIGNALSTATUS_INITIALIZED.
 155:.\bsw\rte/sc_joystick.h ****  *
 156:.\bsw\rte/sc_joystick.h ****  * @param  SC_JOYSTICK_t * const signal: Pointer to the signal object which will be initialised
 157:.\bsw\rte/sc_joystick.h ****  * @return RC_t: standard return code, currently only RC_SUCCESS
 158:.\bsw\rte/sc_joystick.h ****  *
 159:.\bsw\rte/sc_joystick.h ****  **/
 160:.\bsw\rte/sc_joystick.h **** inline RC_t RTE_SC_JOYSTICK_init( SC_JOYSTICK_t * const signal )
 161:.\bsw\rte/sc_joystick.h **** {                                                                                                  
 162:.\bsw\rte/sc_joystick.h **** 
 163:.\bsw\rte/sc_joystick.h ****    RC_t ret = RC_SUCCESS;
 164:.\bsw\rte/sc_joystick.h **** 
 165:.\bsw\rte/sc_joystick.h ****    //Set value and raw value
 166:.\bsw\rte/sc_joystick.h ****    signal->value  = SC_JOYSTICK_INIT_DATA;
 167:.\bsw\rte/sc_joystick.h ****    signal->age    = 0;
 168:.\bsw\rte/sc_joystick.h ****    signal->status = RTE_SIGNALSTATUS_INITIALIZED;
 169:.\bsw\rte/sc_joystick.h **** 
 170:.\bsw\rte/sc_joystick.h ****    return ret;
 171:.\bsw\rte/sc_joystick.h **** }
 172:.\bsw\rte/sc_joystick.h **** 
 173:.\bsw\rte/sc_joystick.h **** /**************************************************************************************************
 174:.\bsw\rte/sc_joystick.h **** /* Status and timeout control																						*/
 175:.\bsw\rte/sc_joystick.h **** /**************************************************************************************************
 176:.\bsw\rte/sc_joystick.h **** 
 177:.\bsw\rte/sc_joystick.h **** /**
 178:.\bsw\rte/sc_joystick.h ****  *  Returns the current signal status of the passed signal instance.
 179:.\bsw\rte/sc_joystick.h ****  *
 180:.\bsw\rte/sc_joystick.h ****  * @param  SC_JOYSTICK_t * const signal: Pointer to the signal object
 181:.\bsw\rte/sc_joystick.h ****  * @return  sig_status_t: The current signal status
 182:.\bsw\rte/sc_joystick.h ****  *
 183:.\bsw\rte/sc_joystick.h ****  **/
 184:.\bsw\rte/sc_joystick.h **** inline RTE_signalStatus_t RTE_SC_JOYSTICK_getStatus( const SC_JOYSTICK_t * const signal )
 185:.\bsw\rte/sc_joystick.h **** {
 186:.\bsw\rte/sc_joystick.h ****    return signal->status;
 187:.\bsw\rte/sc_joystick.h **** }
 188:.\bsw\rte/sc_joystick.h **** 
 189:.\bsw\rte/sc_joystick.h **** 
 190:.\bsw\rte/sc_joystick.h **** /**
 191:.\bsw\rte/sc_joystick.h ****  *  Sets a new signal status of the passed signal instance by passing the new status.
 192:.\bsw\rte/sc_joystick.h ****  *
 193:.\bsw\rte/sc_joystick.h ****  * @param  SC_JOYSTICK_t * const signal: Pointer to the signal object
 194:.\bsw\rte/sc_joystick.h ****  * @param  const sig_status_t status: New signal status
 195:.\bsw\rte/sc_joystick.h ****  * @return RC_t: standard return code, currently only RC_SUCCESS
 196:.\bsw\rte/sc_joystick.h ****  *
 197:.\bsw\rte/sc_joystick.h ****  */
 198:.\bsw\rte/sc_joystick.h **** inline RC_t RTE_SC_JOYSTICK_setStatus( SC_JOYSTICK_t * const signal, const RTE_signalStatus_t statu
ARM GAS  C:\Users\vboxuser\AppData\Local\Temp\cccqcqvJ.s 			page 6


 199:.\bsw\rte/sc_joystick.h **** {
 200:.\bsw\rte/sc_joystick.h ****    signal->status = status;
 201:.\bsw\rte/sc_joystick.h ****    size_t taskNum=0;
 202:.\bsw\rte/sc_joystick.h ****    
 203:.\bsw\rte/sc_joystick.h ****    //Fire error events in case of invalid state
 204:.\bsw\rte/sc_joystick.h ****    if (signal->status == RTE_SIGNALSTATUS_INVALID)
 205:.\bsw\rte/sc_joystick.h ****    {
 206:.\bsw\rte/sc_joystick.h **** 	    //Pointer to the Taskarray, containing the tasks receiving the onUpdate events
 207:.\bsw\rte/sc_joystick.h **** 		TaskTypeArray* pTaskArray = signal->pSigCfg->onErrorTasks;
 208:.\bsw\rte/sc_joystick.h **** 
 209:.\bsw\rte/sc_joystick.h **** 		if (0 != signal->pSigCfg->evOnError && NULL != pTaskArray){
 210:.\bsw\rte/sc_joystick.h **** 			for( taskNum=0 ; taskNum < signal->pSigCfg->onErrorTaskCount ;taskNum++){
 211:.\bsw\rte/sc_joystick.h **** 				TaskType task = (*pTaskArray)[taskNum];
 212:.\bsw\rte/sc_joystick.h **** 				SetEvent( task, signal->pSigCfg->evOnError);
 213:.\bsw\rte/sc_joystick.h **** 			}
 214:.\bsw\rte/sc_joystick.h **** 		}
 215:.\bsw\rte/sc_joystick.h ****    }
 216:.\bsw\rte/sc_joystick.h ****    
 217:.\bsw\rte/sc_joystick.h ****    return RC_SUCCESS;
 218:.\bsw\rte/sc_joystick.h **** }
 219:.\bsw\rte/sc_joystick.h **** 
 220:.\bsw\rte/sc_joystick.h **** 
 221:.\bsw\rte/sc_joystick.h **** /**
 222:.\bsw\rte/sc_joystick.h ****  * Returns the count of refreshing trials (refresh, set or set_raw) that failed.
 223:.\bsw\rte/sc_joystick.h ****  * Prerquisite: The signal is refreshed cyclically
 224:.\bsw\rte/sc_joystick.h ****  *
 225:.\bsw\rte/sc_joystick.h ****  * @param  SC_JOYSTICK_t * const signal: Pointer to the signal object
 226:.\bsw\rte/sc_joystick.h ****  * @return uint32_t: Number of cycles since the signal has been updated for the last time
 227:.\bsw\rte/sc_joystick.h ****  */
 228:.\bsw\rte/sc_joystick.h **** inline uint32_t RTE_SC_JOYSTICK_getAge( const SC_JOYSTICK_t * const signal )
 229:.\bsw\rte/sc_joystick.h **** {
 230:.\bsw\rte/sc_joystick.h ****    return signal->age;
 231:.\bsw\rte/sc_joystick.h **** }
 232:.\bsw\rte/sc_joystick.h **** 
 233:.\bsw\rte/sc_joystick.h **** /**
 234:.\bsw\rte/sc_joystick.h ****  * Should be called by application or driver if no new value can be provided.
 235:.\bsw\rte/sc_joystick.h ****  * @param  SC_JOYSTICK_t * const signal: Pointer to the signal object
 236:.\bsw\rte/sc_joystick.h ****  * @param uint32_t increment: incrementvalue, typically in [ms]
 237:.\bsw\rte/sc_joystick.h ****  * @return void
 238:.\bsw\rte/sc_joystick.h ****  */
 239:.\bsw\rte/sc_joystick.h **** inline void RTE_SC_JOYSTICK_incAge(  SC_JOYSTICK_t * const signal , uint32_t increment)
 240:.\bsw\rte/sc_joystick.h **** {
 241:.\bsw\rte/sc_joystick.h **** 	   //Hack....
 242:.\bsw\rte/sc_joystick.h **** 	   if ( 0xFFFF0000 > (signal->age + increment) )
 243:.\bsw\rte/sc_joystick.h **** 	   {
 244:.\bsw\rte/sc_joystick.h **** 	      signal->age += increment;
 245:.\bsw\rte/sc_joystick.h **** 	   }
 246:.\bsw\rte/sc_joystick.h **** }
 247:.\bsw\rte/sc_joystick.h **** 
 248:.\bsw\rte/sc_joystick.h **** 
 249:.\bsw\rte/sc_joystick.h **** /**************************************************************************************************
 250:.\bsw\rte/sc_joystick.h **** /* Application Data read/write Interface																			*/
 251:.\bsw\rte/sc_joystick.h **** /**************************************************************************************************
 252:.\bsw\rte/sc_joystick.h **** 
 253:.\bsw\rte/sc_joystick.h **** /**
 254:.\bsw\rte/sc_joystick.h ****  * Returns the current application value as pointer to the signal payload.
 255:.\bsw\rte/sc_joystick.h ****  * Careful: This is not threadsafe!!!
ARM GAS  C:\Users\vboxuser\AppData\Local\Temp\cccqcqvJ.s 			page 7


 256:.\bsw\rte/sc_joystick.h ****  *
 257:.\bsw\rte/sc_joystick.h ****  * @param  SC_JOYSTICK_t * const signal: Pointer to the signal object
 258:.\bsw\rte/sc_joystick.h ****  * @return sc_joystick_data_t*: pointer to the current value of the application data buffer
 259:.\bsw\rte/sc_joystick.h ****  *
 260:.\bsw\rte/sc_joystick.h ****  **/
 261:.\bsw\rte/sc_joystick.h **** inline SC_JOYSTICK_data_t* RTE_SC_JOYSTICK_getPtr( SC_JOYSTICK_t * const signal )
 262:.\bsw\rte/sc_joystick.h **** {               
 263:.\bsw\rte/sc_joystick.h ****    //Todo: Critical region cannot be protected using return values																						
 264:.\bsw\rte/sc_joystick.h ****    return &(signal->value);                                                                        
 265:.\bsw\rte/sc_joystick.h **** }
 266:.\bsw\rte/sc_joystick.h **** 
 267:.\bsw\rte/sc_joystick.h **** /**
 268:.\bsw\rte/sc_joystick.h ****  * Returns the current application value of the passed signal instance.
 269:.\bsw\rte/sc_joystick.h ****  *
 270:.\bsw\rte/sc_joystick.h ****  * @param  SC_JOYSTICK_t * const signal: Pointer to the signal object
 271:.\bsw\rte/sc_joystick.h ****  * @return sc_joystick_data_t: current value of the application data buffer
 272:.\bsw\rte/sc_joystick.h ****  *
 273:.\bsw\rte/sc_joystick.h ****  **/
 274:.\bsw\rte/sc_joystick.h **** inline SC_JOYSTICK_data_t RTE_SC_JOYSTICK_get( const SC_JOYSTICK_t * const signal )
 275:.\bsw\rte/sc_joystick.h **** {               
 276:.\bsw\rte/sc_joystick.h ****    //Todo: Critical region cannot be protected using return values																						
 277:.\bsw\rte/sc_joystick.h ****    return signal->value;                                                                           
 278:.\bsw\rte/sc_joystick.h **** }                                                                                                  
 279:.\bsw\rte/sc_joystick.h ****                                                                                                    
 280:.\bsw\rte/sc_joystick.h **** /**
 281:.\bsw\rte/sc_joystick.h ****  * Returns the current application value of the passed signal instance threadsafe.
 282:.\bsw\rte/sc_joystick.h ****  *
 283:.\bsw\rte/sc_joystick.h ****  * @param  SC_JOYSTICK_t * const signal: Pointer to the signal object
 284:.\bsw\rte/sc_joystick.h ****  * @param  SC_JOYSTICK_data_t* data: Pointer to the return data Pointer to the signal object
 285:.\bsw\rte/sc_joystick.h ****  * @return RC_SUCCESS
 286:.\bsw\rte/sc_joystick.h ****  *
 287:.\bsw\rte/sc_joystick.h ****  **/
 288:.\bsw\rte/sc_joystick.h **** inline RC_t RTE_SC_JOYSTICK_getThreadSafe( const SC_JOYSTICK_t * const signal, SC_JOYSTICK_data_t *
 289:.\bsw\rte/sc_joystick.h **** {    
 290:.\bsw\rte/sc_joystick.h ****    if (TRUE == signal->pSigCfg->resourceActive) GetResource(signal->pSigCfg->resource);
 291:.\bsw\rte/sc_joystick.h ****    *data = signal->value;
 292:.\bsw\rte/sc_joystick.h ****    if (TRUE == signal->pSigCfg->resourceActive) ReleaseResource(signal->pSigCfg->resource);        
 293:.\bsw\rte/sc_joystick.h **** 
 294:.\bsw\rte/sc_joystick.h ****    return RC_SUCCESS;                                                                   
 295:.\bsw\rte/sc_joystick.h ****    
 296:.\bsw\rte/sc_joystick.h **** }                                                                                                  
 297:.\bsw\rte/sc_joystick.h ****                                                                                                    
 298:.\bsw\rte/sc_joystick.h **** /**
 299:.\bsw\rte/sc_joystick.h ****  * Sets a new application value to the passed signal instance by passing the new value.
 300:.\bsw\rte/sc_joystick.h ****  * The corresponding driver raw value will be calculated immediately by using the default conversio
 301:.\bsw\rte/sc_joystick.h ****  * signal specific scaling function.
 302:.\bsw\rte/sc_joystick.h ****  * The signal age will be set to 0 and the new status will be 'RTE_SIGNALSTATUS_VALID'.
 303:.\bsw\rte/sc_joystick.h ****  *
 304:.\bsw\rte/sc_joystick.h ****  * @param  SC_JOYSTICK_t * const signal: Pointer to the signal object
 305:.\bsw\rte/sc_joystick.h ****  * @param  sc_joystick_data_t const value: value for the application data buffer
 306:.\bsw\rte/sc_joystick.h ****  * @return RC_t: standard return code, currently only RC_SUCCESS
 307:.\bsw\rte/sc_joystick.h ****  *
 308:.\bsw\rte/sc_joystick.h ****  **/
 309:.\bsw\rte/sc_joystick.h **** inline RC_t RTE_SC_JOYSTICK_set(SC_JOYSTICK_t * const signal, const SC_JOYSTICK_data_t value  )
 310:.\bsw\rte/sc_joystick.h **** {
 311:.\bsw\rte/sc_joystick.h **** 
 312:.\bsw\rte/sc_joystick.h ****    RC_t ret = RC_SUCCESS;
ARM GAS  C:\Users\vboxuser\AppData\Local\Temp\cccqcqvJ.s 			page 8


 313:.\bsw\rte/sc_joystick.h ****    size_t taskNum=0;
 314:.\bsw\rte/sc_joystick.h **** 
 315:.\bsw\rte/sc_joystick.h **** 
 316:.\bsw\rte/sc_joystick.h ****    if (TRUE == signal->pSigCfg->resourceActive) GetResource(signal->pSigCfg->resource);
 317:.\bsw\rte/sc_joystick.h ****    signal->value  = value;
 318:.\bsw\rte/sc_joystick.h ****    signal->age    = 0;
 319:.\bsw\rte/sc_joystick.h ****    signal->status = RTE_SIGNALSTATUS_VALID;
 320:.\bsw\rte/sc_joystick.h ****    if (TRUE == signal->pSigCfg->resourceActive) ReleaseResource(signal->pSigCfg->resource);
 321:.\bsw\rte/sc_joystick.h **** 
 322:.\bsw\rte/sc_joystick.h ****    //Pointer to the Taskarray, containing the tasks receiving the onUpdate events
 323:.\bsw\rte/sc_joystick.h ****    TaskTypeArray* pTaskArray = signal->pSigCfg->onUpdateTasks;
 324:.\bsw\rte/sc_joystick.h **** 
 325:.\bsw\rte/sc_joystick.h ****    if (0 != signal->pSigCfg->evOnUpdate && NULL != pTaskArray){
 326:.\bsw\rte/sc_joystick.h ****       for( taskNum=0 ; taskNum < signal->pSigCfg->onUpdateTaskCount ;taskNum++){
 327:.\bsw\rte/sc_joystick.h **** 		  
 328:.\bsw\rte/sc_joystick.h ****           TaskType task = (*pTaskArray)[taskNum];
 329:.\bsw\rte/sc_joystick.h **** 	      SetEvent( task, signal->pSigCfg->evOnUpdate);
 330:.\bsw\rte/sc_joystick.h ****       }
 331:.\bsw\rte/sc_joystick.h ****    }
 332:.\bsw\rte/sc_joystick.h **** 
 333:.\bsw\rte/sc_joystick.h ****    return ret;
 334:.\bsw\rte/sc_joystick.h **** }                                                                                                  
 335:.\bsw\rte/sc_joystick.h ****                                                                                                    
 336:.\bsw\rte/sc_joystick.h ****                                                                                                    
 337:.\bsw\rte/sc_joystick.h **** /**************************************************************************************************
 338:.\bsw\rte/sc_joystick.h **** /* Call functions to the connected drivers																			*/
 339:.\bsw\rte/sc_joystick.h **** /**************************************************************************************************
 340:.\bsw\rte/sc_joystick.h **** 
 341:.\bsw\rte/sc_joystick.h ****                                                                                                    
 342:.\bsw\rte/sc_joystick.h **** /**
 343:.\bsw\rte/sc_joystick.h ****  *  Calls the connected driver interface to get a new value.
 344:.\bsw\rte/sc_joystick.h ****  *
 345:.\bsw\rte/sc_joystick.h ****  * @param SC_JOYSTICK_t * const signal: Pointer to the signal object
 346:.\bsw\rte/sc_joystick.h ****  * @return  RC_t: Return value of the driver call
 347:.\bsw\rte/sc_joystick.h ****  *
 348:.\bsw\rte/sc_joystick.h ****  */
 349:.\bsw\rte/sc_joystick.h **** inline RC_t RTE_SC_JOYSTICK_pullPort( SC_JOYSTICK_t * const signal )
 350:.\bsw\rte/sc_joystick.h **** {                                                                                                  
 351:.\bsw\rte/sc_joystick.h ****    RC_t ret = RC_SUCCESS;
 352:.\bsw\rte/sc_joystick.h **** 
 353:.\bsw\rte/sc_joystick.h ****                                                                                                    
 354:.\bsw\rte/sc_joystick.h ****    if ( NULL != signal->pSigCfg->inDriver )
  44              		.loc 2 354 0
  45 0004 224B     		ldr	r3, .L12
  46 0006 9B68     		ldr	r3, [r3, #8]
  47 0008 1A68     		ldr	r2, [r3]
  48 000a 002A     		cmp	r2, #0
  49 000c 3BD0     		beq	.L2
  50              	.LBB55:
 355:.\bsw\rte/sc_joystick.h ****    {
 356:.\bsw\rte/sc_joystick.h **** 	  SC_JOYSTICK_data_t value = signal->value;
  51              		.loc 2 356 0
  52 000e 204A     		ldr	r2, .L12
  53 0010 1288     		ldrh	r2, [r2]
  54 0012 02A8     		add	r0, sp, #8
  55 0014 20F8082D 		strh	r2, [r0, #-8]!	@ movhi
 357:.\bsw\rte/sc_joystick.h ****       ret = signal->pSigCfg->inDriver(&value);
ARM GAS  C:\Users\vboxuser\AppData\Local\Temp\cccqcqvJ.s 			page 9


  56              		.loc 2 357 0
  57 0018 1B68     		ldr	r3, [r3]
  58 001a 9847     		blx	r3
  59              	.LVL2:
 358:.\bsw\rte/sc_joystick.h ****                                                                                                    
 359:.\bsw\rte/sc_joystick.h ****       if ( ret == RC_SUCCESS )                                                                     
  60              		.loc 2 359 0
  61 001c E8B9     		cbnz	r0, .L3
  62              	.LVL3:
  63 001e BDF80010 		ldrh	r1, [sp]
  64 0022 ADF80410 		strh	r1, [sp, #4]	@ movhi
  65              	.LVL4:
  66              	.LBB56:
  67              	.LBB57:
 316:.\bsw\rte/sc_joystick.h ****    signal->value  = value;
  68              		.loc 2 316 0
  69 0026 1A4B     		ldr	r3, .L12
  70 0028 9A68     		ldr	r2, [r3, #8]
 317:.\bsw\rte/sc_joystick.h ****    signal->age    = 0;
  71              		.loc 2 317 0
  72 002a 1980     		strh	r1, [r3]	@ movhi
 318:.\bsw\rte/sc_joystick.h ****    signal->status = RTE_SIGNALSTATUS_VALID;
  73              		.loc 2 318 0
  74 002c 0021     		movs	r1, #0
  75 002e 5960     		str	r1, [r3, #4]
 319:.\bsw\rte/sc_joystick.h ****    if (TRUE == signal->pSigCfg->resourceActive) ReleaseResource(signal->pSigCfg->resource);
  76              		.loc 2 319 0
  77 0030 0221     		movs	r1, #2
  78 0032 9970     		strb	r1, [r3, #2]
 323:.\bsw\rte/sc_joystick.h **** 
  79              		.loc 2 323 0
  80 0034 5569     		ldr	r5, [r2, #20]
  81              	.LVL5:
 325:.\bsw\rte/sc_joystick.h ****       for( taskNum=0 ; taskNum < signal->pSigCfg->onUpdateTaskCount ;taskNum++){
  82              		.loc 2 325 0
  83 0036 9368     		ldr	r3, [r2, #8]
  84 0038 2BB3     		cbz	r3, .L2
  85 003a 3DB9     		cbnz	r5, .L9
  86 003c 23E0     		b	.L2
  87              	.LVL6:
  88              	.L6:
  89              	.LBB58:
 329:.\bsw\rte/sc_joystick.h ****       }
  90              		.loc 2 329 0
  91 003e 9968     		ldr	r1, [r3, #8]
  92 0040 55F82400 		ldr	r0, [r5, r4, lsl #2]
  93 0044 FFF7FEFF 		bl	EE_oo_SetEvent
  94              	.LVL7:
  95              	.LBE58:
 326:.\bsw\rte/sc_joystick.h **** 		  
  96              		.loc 2 326 0
  97 0048 0134     		adds	r4, r4, #1
  98              	.LVL8:
  99 004a 00E0     		b	.L5
 100              	.LVL9:
 101              	.L9:
 325:.\bsw\rte/sc_joystick.h ****       for( taskNum=0 ; taskNum < signal->pSigCfg->onUpdateTaskCount ;taskNum++){
ARM GAS  C:\Users\vboxuser\AppData\Local\Temp\cccqcqvJ.s 			page 10


 102              		.loc 2 325 0
 103 004c 0024     		movs	r4, #0
 104              	.LVL10:
 105              	.L5:
 326:.\bsw\rte/sc_joystick.h **** 		  
 106              		.loc 2 326 0
 107 004e 104B     		ldr	r3, .L12
 108 0050 9B68     		ldr	r3, [r3, #8]
 109 0052 1A69     		ldr	r2, [r3, #16]
 110 0054 9442     		cmp	r4, r2
 111 0056 F2D3     		bcc	.L6
 112 0058 15E0     		b	.L2
 113              	.LVL11:
 114              	.L3:
 115              	.LBE57:
 116              	.LBE56:
 117              	.LBB59:
 118              	.LBB60:
 200:.\bsw\rte/sc_joystick.h ****    size_t taskNum=0;
 119              		.loc 2 200 0
 120 005a 0D4B     		ldr	r3, .L12
 121 005c 0322     		movs	r2, #3
 122 005e 9A70     		strb	r2, [r3, #2]
 123              	.LVL12:
 124              	.LBB61:
 207:.\bsw\rte/sc_joystick.h **** 
 125              		.loc 2 207 0
 126 0060 9B68     		ldr	r3, [r3, #8]
 127 0062 DD69     		ldr	r5, [r3, #28]
 128              	.LVL13:
 209:.\bsw\rte/sc_joystick.h **** 			for( taskNum=0 ; taskNum < signal->pSigCfg->onErrorTaskCount ;taskNum++){
 129              		.loc 2 209 0
 130 0064 DB68     		ldr	r3, [r3, #12]
 131 0066 73B1     		cbz	r3, .L2
 132 0068 3DB9     		cbnz	r5, .L10
 133 006a 0CE0     		b	.L2
 134              	.LVL14:
 135              	.L8:
 136              	.LBB62:
 212:.\bsw\rte/sc_joystick.h **** 			}
 137              		.loc 2 212 0
 138 006c D968     		ldr	r1, [r3, #12]
 139 006e 55F82400 		ldr	r0, [r5, r4, lsl #2]
 140 0072 FFF7FEFF 		bl	EE_oo_SetEvent
 141              	.LVL15:
 142              	.LBE62:
 210:.\bsw\rte/sc_joystick.h **** 				TaskType task = (*pTaskArray)[taskNum];
 143              		.loc 2 210 0
 144 0076 0134     		adds	r4, r4, #1
 145              	.LVL16:
 146 0078 00E0     		b	.L7
 147              	.LVL17:
 148              	.L10:
 209:.\bsw\rte/sc_joystick.h **** 			for( taskNum=0 ; taskNum < signal->pSigCfg->onErrorTaskCount ;taskNum++){
 149              		.loc 2 209 0
 150 007a 0024     		movs	r4, #0
 151              	.LVL18:
ARM GAS  C:\Users\vboxuser\AppData\Local\Temp\cccqcqvJ.s 			page 11


 152              	.L7:
 210:.\bsw\rte/sc_joystick.h **** 				TaskType task = (*pTaskArray)[taskNum];
 153              		.loc 2 210 0
 154 007c 044B     		ldr	r3, .L12
 155 007e 9B68     		ldr	r3, [r3, #8]
 156 0080 9A69     		ldr	r2, [r3, #24]
 157 0082 9442     		cmp	r4, r2
 158 0084 F2D3     		bcc	.L8
 159              	.LVL19:
 160              	.L2:
 161              	.LBE61:
 162              	.LBE60:
 163              	.LBE59:
 164              	.LBE55:
 165              	.LBE54:
 166              	.LBE53:
  45:asw/swc_gaspedal.c **** 	
  46:asw/swc_gaspedal.c **** 	/* USER CODE START GASPEDAL_readJoystick_run */
  47:asw/swc_gaspedal.c ****     ev =0;
  48:asw/swc_gaspedal.c ****     RTE_SC_JOYSTICK_pullPort(&SO_JOYSTICK_signal);
  49:asw/swc_gaspedal.c ****     
  50:asw/swc_gaspedal.c ****     WD_Alive(WD_RUN_READJOYSTICK);
 167              		.loc 1 50 0
 168 0086 0020     		movs	r0, #0
 169 0088 FFF7FEFF 		bl	WD_Alive
 170              	.LVL20:
  51:asw/swc_gaspedal.c ****     /* USER CODE END GASPEDAL_readJoystick_run */
  52:asw/swc_gaspedal.c **** }
 171              		.loc 1 52 0
 172 008c 03B0     		add	sp, sp, #12
 173              		.cfi_def_cfa_offset 12
 174              		@ sp needed
 175 008e 30BD     		pop	{r4, r5, pc}
 176              	.L13:
 177              		.align	2
 178              	.L12:
 179 0090 00000000 		.word	SO_JOYSTICK_signal
 180              		.cfi_endproc
 181              	.LFE180:
 182              		.size	GASPEDAL_readJoystick_run, .-GASPEDAL_readJoystick_run
 183              		.section	.text.GASPEDAL_calcControl_run,"ax",%progbits
 184              		.align	2
 185              		.global	GASPEDAL_calcControl_run
 186              		.thumb
 187              		.thumb_func
 188              		.type	GASPEDAL_calcControl_run, %function
 189              	GASPEDAL_calcControl_run:
 190              	.LFB181:
  53:asw/swc_gaspedal.c **** 
  54:asw/swc_gaspedal.c **** /*
  55:asw/swc_gaspedal.c ****  * component: swc_GasPedal
  56:asw/swc_gaspedal.c ****  * cycletime: 0
  57:asw/swc_gaspedal.c ****  * description: Runnable that check the joystick signal and update speed signal value
  58:asw/swc_gaspedal.c ****  * events: ev_joystick_onData|ev_breakpedal_onData|ev_screen_onData
  59:asw/swc_gaspedal.c ****  * name: GASPEDAL_calcControl_run
  60:asw/swc_gaspedal.c ****  * shortname: calcControl
  61:asw/swc_gaspedal.c ****  * signalIN: so_joystick|so_breakPedal
ARM GAS  C:\Users\vboxuser\AppData\Local\Temp\cccqcqvJ.s 			page 12


  62:asw/swc_gaspedal.c ****  * signalOUT: so_speed
  63:asw/swc_gaspedal.c ****  * task: tsk_control
  64:asw/swc_gaspedal.c ****  */
  65:asw/swc_gaspedal.c **** void GASPEDAL_calcControl_run(RTE_event ev){
 191              		.loc 1 65 0
 192              		.cfi_startproc
 193              		@ args = 0, pretend = 0, frame = 16
 194              		@ frame_needed = 0, uses_anonymous_args = 0
 195              	.LVL21:
 196 0000 30B5     		push	{r4, r5, lr}
 197              		.cfi_def_cfa_offset 12
 198              		.cfi_offset 4, -12
 199              		.cfi_offset 5, -8
 200              		.cfi_offset 14, -4
 201 0002 85B0     		sub	sp, sp, #20
 202              		.cfi_def_cfa_offset 32
  66:asw/swc_gaspedal.c **** 	
  67:asw/swc_gaspedal.c **** 	/* USER CODE START GASPEDAL_calcControl_run */
  68:asw/swc_gaspedal.c ****     if ((ev & ev_joystick_onData)){
 203              		.loc 1 68 0
 204 0004 10F0020F 		tst	r0, #2
 205 0008 31D0     		beq	.L15
 206              	.LBB63:
  69:asw/swc_gaspedal.c ****         
  70:asw/swc_gaspedal.c ****         SC_SPEED_data_t speedSignal = SC_SPEED_INIT_DATA;
 207              		.loc 1 70 0
 208 000a 0023     		movs	r3, #0
 209 000c 1946     		mov	r1, r3
 210              	.LVL22:
  71:asw/swc_gaspedal.c ****         SC_JOYSTICK_data_t joystickSignal = SC_JOYSTICK_INIT_DATA;
 211              		.loc 1 71 0
 212 000e 8DF80430 		strb	r3, [sp, #4]
 213              	.LVL23:
 214              	.LBB64:
 215              	.LBB65:
 186:.\bsw\rte/sc_joystick.h **** }
 216              		.loc 2 186 0
 217 0012 274B     		ldr	r3, .L28
 218 0014 9B78     		ldrb	r3, [r3, #2]	@ zero_extendqisi2
 219              	.LVL24:
 220              	.LBE65:
 221              	.LBE64:
  72:asw/swc_gaspedal.c ****         
  73:asw/swc_gaspedal.c **** 
  74:asw/swc_gaspedal.c ****         if (RTE_SC_JOYSTICK_getStatus(&SO_JOYSTICK_signal) ==RTE_SIGNALSTATUS_VALID){
 222              		.loc 1 74 0
 223 0016 022B     		cmp	r3, #2
 224 0018 07D1     		bne	.L16
 225              	.LVL25:
 226              	.LBB66:
 227              	.LBB67:
 277:.\bsw\rte/sc_joystick.h **** }                                                                                                  
 228              		.loc 2 277 0
 229 001a 254B     		ldr	r3, .L28
 230 001c 1B88     		ldrh	r3, [r3]
 231 001e ADF80C30 		strh	r3, [sp, #12]	@ movhi
 232 0022 ADF80830 		strh	r3, [sp, #8]	@ movhi
ARM GAS  C:\Users\vboxuser\AppData\Local\Temp\cccqcqvJ.s 			page 13


 233              	.LVL26:
 234              	.LBE67:
 235              	.LBE66:
  75:asw/swc_gaspedal.c ****             joystickSignal.xPos = RTE_SC_JOYSTICK_get(&SO_JOYSTICK_signal).xPos;
 236              		.loc 1 75 0
 237 0026 8DF80430 		strb	r3, [sp, #4]
 238              	.L16:
  76:asw/swc_gaspedal.c ****         }
  77:asw/swc_gaspedal.c ****         
  78:asw/swc_gaspedal.c ****             //Set the X value of the joystick to the speed data based on the condition given.
  79:asw/swc_gaspedal.c ****         if(joystickSignal.xPos > JOYSTICK_DRIFTX)
 239              		.loc 1 79 0
 240 002a 9DF90430 		ldrsb	r3, [sp, #4]
 241 002e 072B     		cmp	r3, #7
 242 0030 00DD     		ble	.L17
  80:asw/swc_gaspedal.c ****         {
  81:asw/swc_gaspedal.c ****             speedSignal.speedValue = 2 * (joystickSignal.xPos);
 243              		.loc 1 81 0
 244 0032 5900     		lsls	r1, r3, #1
 245              	.L17:
 246              	.LVL27:
 247              	.LBB68:
 248              	.LBB69:
 249              		.file 3 ".\\bsw\\rte/sc_speed.h"
   1:.\bsw\rte/sc_speed.h **** 
   2:.\bsw\rte/sc_speed.h **** 
   3:.\bsw\rte/sc_speed.h **** /**
   4:.\bsw\rte/sc_speed.h ****  *  file    SC_SPEED_signal.h
   5:.\bsw\rte/sc_speed.h ****  *
   6:.\bsw\rte/sc_speed.h ****  *  brief   signal base class for signal sc_speed
   7:.\bsw\rte/sc_speed.h ****  *
   8:.\bsw\rte/sc_speed.h ****  *  author  Autogenerated, Peter Fromm       <peter.fromm@h-da.de>
   9:.\bsw\rte/sc_speed.h ****  *
  10:.\bsw\rte/sc_speed.h ****  * description: Speed signal class
  11:.\bsw\rte/sc_speed.h ****  * name: sc_speed
  12:.\bsw\rte/sc_speed.h ****  * shortname: speed
  13:.\bsw\rte/sc_speed.h ****  *
  14:.\bsw\rte/sc_speed.h ****  */
  15:.\bsw\rte/sc_speed.h **** 
  16:.\bsw\rte/sc_speed.h **** 
  17:.\bsw\rte/sc_speed.h **** 
  18:.\bsw\rte/sc_speed.h **** #ifndef SC_SPEED_SIGNAL_H_INCLUDED
  19:.\bsw\rte/sc_speed.h **** #define SC_SPEED_SIGNAL_H_INCLUDED
  20:.\bsw\rte/sc_speed.h **** 
  21:.\bsw\rte/sc_speed.h **** /*================================================[ public includes  ]=============================
  22:.\bsw\rte/sc_speed.h **** #include "global.h"
  23:.\bsw\rte/sc_speed.h **** #include "project.h"
  24:.\bsw\rte/sc_speed.h **** #include "rte.h"
  25:.\bsw\rte/sc_speed.h **** #include "rte_types.h"
  26:.\bsw\rte/sc_speed.h **** 
  27:.\bsw\rte/sc_speed.h **** #include "sc_speed_type.h"
  28:.\bsw\rte/sc_speed.h **** 
  29:.\bsw\rte/sc_speed.h **** 
  30:.\bsw\rte/sc_speed.h **** /**************************************************************************************************
  31:.\bsw\rte/sc_speed.h **** /* The driver API block																						*/
  32:.\bsw\rte/sc_speed.h **** /**************************************************************************************************
  33:.\bsw\rte/sc_speed.h ****                                                                                                    
ARM GAS  C:\Users\vboxuser\AppData\Local\Temp\cccqcqvJ.s 			page 14


  34:.\bsw\rte/sc_speed.h **** /**
  35:.\bsw\rte/sc_speed.h ****  *  Definition of function types for driver interfaces.
  36:.\bsw\rte/sc_speed.h ****  *  I-Port
  37:.\bsw\rte/sc_speed.h ****  */
  38:.\bsw\rte/sc_speed.h **** typedef RC_t (*SC_SPEED_driverIn_t)(SC_SPEED_data_t * const);
  39:.\bsw\rte/sc_speed.h **** 
  40:.\bsw\rte/sc_speed.h **** /**
  41:.\bsw\rte/sc_speed.h ****  *  Definition of function types for driver interfaces.
  42:.\bsw\rte/sc_speed.h ****  *  O-Port
  43:.\bsw\rte/sc_speed.h ****  */
  44:.\bsw\rte/sc_speed.h **** typedef RC_t (*SC_SPEED_driverOut_t)( const SC_SPEED_data_t * const);
  45:.\bsw\rte/sc_speed.h **** 
  46:.\bsw\rte/sc_speed.h **** 
  47:.\bsw\rte/sc_speed.h **** /**************************************************************************************************
  48:.\bsw\rte/sc_speed.h **** /* The signal configuration API block																				*/
  49:.\bsw\rte/sc_speed.h **** /**************************************************************************************************
  50:.\bsw\rte/sc_speed.h **** 
  51:.\bsw\rte/sc_speed.h **** /**
  52:.\bsw\rte/sc_speed.h ****  * Instances of the struct SC_SPEED_cfg_t represent the signal object configuration.
  53:.\bsw\rte/sc_speed.h ****  */
  54:.\bsw\rte/sc_speed.h **** struct SC_SPEED_cfg_s
  55:.\bsw\rte/sc_speed.h **** {
  56:.\bsw\rte/sc_speed.h ****     /**
  57:.\bsw\rte/sc_speed.h ****      * Function pointer to the input driver
  58:.\bsw\rte/sc_speed.h ****      */
  59:.\bsw\rte/sc_speed.h ****     SC_SPEED_driverIn_t const inDriver;
  60:.\bsw\rte/sc_speed.h **** 
  61:.\bsw\rte/sc_speed.h ****     /**
  62:.\bsw\rte/sc_speed.h ****      * Function pointer to the output driver table
  63:.\bsw\rte/sc_speed.h ****      */
  64:.\bsw\rte/sc_speed.h ****    SC_SPEED_driverOut_t const outDriver;
  65:.\bsw\rte/sc_speed.h ****    
  66:.\bsw\rte/sc_speed.h ****     /**
  67:.\bsw\rte/sc_speed.h ****      * Event onUpdate
  68:.\bsw\rte/sc_speed.h ****      */
  69:.\bsw\rte/sc_speed.h ****     EventMaskType const evOnUpdate;
  70:.\bsw\rte/sc_speed.h ****     
  71:.\bsw\rte/sc_speed.h ****     
  72:.\bsw\rte/sc_speed.h ****     /**
  73:.\bsw\rte/sc_speed.h ****      * Event onError
  74:.\bsw\rte/sc_speed.h ****      */
  75:.\bsw\rte/sc_speed.h ****     EventMaskType const evOnError;
  76:.\bsw\rte/sc_speed.h ****     
  77:.\bsw\rte/sc_speed.h ****     /**
  78:.\bsw\rte/sc_speed.h ****      * Task Count onUpdate
  79:.\bsw\rte/sc_speed.h ****      */
  80:.\bsw\rte/sc_speed.h ****     size_t const onUpdateTaskCount;
  81:.\bsw\rte/sc_speed.h **** 
  82:.\bsw\rte/sc_speed.h ****     /**
  83:.\bsw\rte/sc_speed.h ****      * Task List onUpdate
  84:.\bsw\rte/sc_speed.h ****      */
  85:.\bsw\rte/sc_speed.h ****     TaskTypeArray* const onUpdateTasks;
  86:.\bsw\rte/sc_speed.h ****     
  87:.\bsw\rte/sc_speed.h ****     /**
  88:.\bsw\rte/sc_speed.h ****      * Task Count onError
  89:.\bsw\rte/sc_speed.h ****      */
  90:.\bsw\rte/sc_speed.h ****     size_t const onErrorTaskCount;
ARM GAS  C:\Users\vboxuser\AppData\Local\Temp\cccqcqvJ.s 			page 15


  91:.\bsw\rte/sc_speed.h **** 
  92:.\bsw\rte/sc_speed.h ****     /**
  93:.\bsw\rte/sc_speed.h ****      * Task List onError
  94:.\bsw\rte/sc_speed.h ****      */
  95:.\bsw\rte/sc_speed.h ****     TaskTypeArray* const onErrorTasks;
  96:.\bsw\rte/sc_speed.h **** 	
  97:.\bsw\rte/sc_speed.h **** 	
  98:.\bsw\rte/sc_speed.h **** 	/**
  99:.\bsw\rte/sc_speed.h **** 	 * Ressourse is active? We need an additional boolean as a ressource value 0 is valid.
 100:.\bsw\rte/sc_speed.h **** 	 */
 101:.\bsw\rte/sc_speed.h **** 	 boolean_t const resourceActive;
 102:.\bsw\rte/sc_speed.h **** 	 
 103:.\bsw\rte/sc_speed.h **** 	/**
 104:.\bsw\rte/sc_speed.h **** 	 * Ressourse 
 105:.\bsw\rte/sc_speed.h **** 	 */
 106:.\bsw\rte/sc_speed.h **** 	 ResourceType const resource;
 107:.\bsw\rte/sc_speed.h **** 
 108:.\bsw\rte/sc_speed.h **** };                                                                                                 
 109:.\bsw\rte/sc_speed.h **** typedef const struct SC_SPEED_cfg_s SC_SPEED_cfg_t;
 110:.\bsw\rte/sc_speed.h ****                               
 111:.\bsw\rte/sc_speed.h **** /**************************************************************************************************
 112:.\bsw\rte/sc_speed.h **** /* The data interface block																							*/
 113:.\bsw\rte/sc_speed.h **** /**************************************************************************************************
 114:.\bsw\rte/sc_speed.h **** 
 115:.\bsw\rte/sc_speed.h ****                                                                                                    
 116:.\bsw\rte/sc_speed.h **** 							  
 117:.\bsw\rte/sc_speed.h **** /**
 118:.\bsw\rte/sc_speed.h ****  * Instances of the struct SC_SPEED_t represent the signal objects.
 119:.\bsw\rte/sc_speed.h ****  * A signal object contains the current application value 'value' as well as relevant meta data.
 120:.\bsw\rte/sc_speed.h ****  */
 121:.\bsw\rte/sc_speed.h **** struct SC_SPEED_s
 122:.\bsw\rte/sc_speed.h **** {                                                                                                  
 123:.\bsw\rte/sc_speed.h **** 
 124:.\bsw\rte/sc_speed.h **** 	/**
 125:.\bsw\rte/sc_speed.h **** 	 * Data buffer for the application value
 126:.\bsw\rte/sc_speed.h **** 	 */
 127:.\bsw\rte/sc_speed.h ****     SC_SPEED_data_t value;
 128:.\bsw\rte/sc_speed.h **** 
 129:.\bsw\rte/sc_speed.h ****     /**
 130:.\bsw\rte/sc_speed.h ****      * Current signal status
 131:.\bsw\rte/sc_speed.h ****      */
 132:.\bsw\rte/sc_speed.h ****     RTE_signalStatus_t status;
 133:.\bsw\rte/sc_speed.h **** 
 134:.\bsw\rte/sc_speed.h ****     /**
 135:.\bsw\rte/sc_speed.h ****      * Current age of the signal (in calling cycles)
 136:.\bsw\rte/sc_speed.h ****      */
 137:.\bsw\rte/sc_speed.h ****     uint32_t age;
 138:.\bsw\rte/sc_speed.h **** 
 139:.\bsw\rte/sc_speed.h ****     /**
 140:.\bsw\rte/sc_speed.h ****      * Pointer to the signal configuration
 141:.\bsw\rte/sc_speed.h ****      */
 142:.\bsw\rte/sc_speed.h **** 	const SC_SPEED_cfg_t * const    pSigCfg;
 143:.\bsw\rte/sc_speed.h **** 
 144:.\bsw\rte/sc_speed.h **** };                                                                                                 
 145:.\bsw\rte/sc_speed.h **** typedef struct SC_SPEED_s SC_SPEED_t;
 146:.\bsw\rte/sc_speed.h **** 
 147:.\bsw\rte/sc_speed.h **** /**************************************************************************************************
ARM GAS  C:\Users\vboxuser\AppData\Local\Temp\cccqcqvJ.s 			page 16


 148:.\bsw\rte/sc_speed.h **** /* Signal initialisation   																							*/
 149:.\bsw\rte/sc_speed.h **** /**************************************************************************************************
 150:.\bsw\rte/sc_speed.h **** 
 151:.\bsw\rte/sc_speed.h **** /**
 152:.\bsw\rte/sc_speed.h ****  * Initializes a signal instance with a passed init value.
 153:.\bsw\rte/sc_speed.h ****  * Depending on the configured conversion or scaling function the raw_value will be calculated.
 154:.\bsw\rte/sc_speed.h ****  * Signal status will change from RTE_SIGNALSTATUS_STARTUP to RTE_SIGNALSTATUS_INITIALIZED.
 155:.\bsw\rte/sc_speed.h ****  *
 156:.\bsw\rte/sc_speed.h ****  * @param  SC_SPEED_t * const signal: Pointer to the signal object which will be initialised
 157:.\bsw\rte/sc_speed.h ****  * @return RC_t: standard return code, currently only RC_SUCCESS
 158:.\bsw\rte/sc_speed.h ****  *
 159:.\bsw\rte/sc_speed.h ****  **/
 160:.\bsw\rte/sc_speed.h **** inline RC_t RTE_SC_SPEED_init( SC_SPEED_t * const signal )
 161:.\bsw\rte/sc_speed.h **** {                                                                                                  
 162:.\bsw\rte/sc_speed.h **** 
 163:.\bsw\rte/sc_speed.h ****    RC_t ret = RC_SUCCESS;
 164:.\bsw\rte/sc_speed.h **** 
 165:.\bsw\rte/sc_speed.h ****    //Set value and raw value
 166:.\bsw\rte/sc_speed.h ****    signal->value  = SC_SPEED_INIT_DATA;
 167:.\bsw\rte/sc_speed.h ****    signal->age    = 0;
 168:.\bsw\rte/sc_speed.h ****    signal->status = RTE_SIGNALSTATUS_INITIALIZED;
 169:.\bsw\rte/sc_speed.h **** 
 170:.\bsw\rte/sc_speed.h ****    return ret;
 171:.\bsw\rte/sc_speed.h **** }
 172:.\bsw\rte/sc_speed.h **** 
 173:.\bsw\rte/sc_speed.h **** /**************************************************************************************************
 174:.\bsw\rte/sc_speed.h **** /* Status and timeout control																						*/
 175:.\bsw\rte/sc_speed.h **** /**************************************************************************************************
 176:.\bsw\rte/sc_speed.h **** 
 177:.\bsw\rte/sc_speed.h **** /**
 178:.\bsw\rte/sc_speed.h ****  *  Returns the current signal status of the passed signal instance.
 179:.\bsw\rte/sc_speed.h ****  *
 180:.\bsw\rte/sc_speed.h ****  * @param  SC_SPEED_t * const signal: Pointer to the signal object
 181:.\bsw\rte/sc_speed.h ****  * @return  sig_status_t: The current signal status
 182:.\bsw\rte/sc_speed.h ****  *
 183:.\bsw\rte/sc_speed.h ****  **/
 184:.\bsw\rte/sc_speed.h **** inline RTE_signalStatus_t RTE_SC_SPEED_getStatus( const SC_SPEED_t * const signal )
 185:.\bsw\rte/sc_speed.h **** {
 186:.\bsw\rte/sc_speed.h ****    return signal->status;
 187:.\bsw\rte/sc_speed.h **** }
 188:.\bsw\rte/sc_speed.h **** 
 189:.\bsw\rte/sc_speed.h **** 
 190:.\bsw\rte/sc_speed.h **** /**
 191:.\bsw\rte/sc_speed.h ****  *  Sets a new signal status of the passed signal instance by passing the new status.
 192:.\bsw\rte/sc_speed.h ****  *
 193:.\bsw\rte/sc_speed.h ****  * @param  SC_SPEED_t * const signal: Pointer to the signal object
 194:.\bsw\rte/sc_speed.h ****  * @param  const sig_status_t status: New signal status
 195:.\bsw\rte/sc_speed.h ****  * @return RC_t: standard return code, currently only RC_SUCCESS
 196:.\bsw\rte/sc_speed.h ****  *
 197:.\bsw\rte/sc_speed.h ****  */
 198:.\bsw\rte/sc_speed.h **** inline RC_t RTE_SC_SPEED_setStatus( SC_SPEED_t * const signal, const RTE_signalStatus_t status )
 199:.\bsw\rte/sc_speed.h **** {
 200:.\bsw\rte/sc_speed.h ****    signal->status = status;
 201:.\bsw\rte/sc_speed.h ****    size_t taskNum=0;
 202:.\bsw\rte/sc_speed.h ****    
 203:.\bsw\rte/sc_speed.h ****    //Fire error events in case of invalid state
 204:.\bsw\rte/sc_speed.h ****    if (signal->status == RTE_SIGNALSTATUS_INVALID)
ARM GAS  C:\Users\vboxuser\AppData\Local\Temp\cccqcqvJ.s 			page 17


 205:.\bsw\rte/sc_speed.h ****    {
 206:.\bsw\rte/sc_speed.h **** 	    //Pointer to the Taskarray, containing the tasks receiving the onUpdate events
 207:.\bsw\rte/sc_speed.h **** 		TaskTypeArray* pTaskArray = signal->pSigCfg->onErrorTasks;
 208:.\bsw\rte/sc_speed.h **** 
 209:.\bsw\rte/sc_speed.h **** 		if (0 != signal->pSigCfg->evOnError && NULL != pTaskArray){
 210:.\bsw\rte/sc_speed.h **** 			for( taskNum=0 ; taskNum < signal->pSigCfg->onErrorTaskCount ;taskNum++){
 211:.\bsw\rte/sc_speed.h **** 				TaskType task = (*pTaskArray)[taskNum];
 212:.\bsw\rte/sc_speed.h **** 				SetEvent( task, signal->pSigCfg->evOnError);
 213:.\bsw\rte/sc_speed.h **** 			}
 214:.\bsw\rte/sc_speed.h **** 		}
 215:.\bsw\rte/sc_speed.h ****    }
 216:.\bsw\rte/sc_speed.h ****    
 217:.\bsw\rte/sc_speed.h ****    return RC_SUCCESS;
 218:.\bsw\rte/sc_speed.h **** }
 219:.\bsw\rte/sc_speed.h **** 
 220:.\bsw\rte/sc_speed.h **** 
 221:.\bsw\rte/sc_speed.h **** /**
 222:.\bsw\rte/sc_speed.h ****  * Returns the count of refreshing trials (refresh, set or set_raw) that failed.
 223:.\bsw\rte/sc_speed.h ****  * Prerquisite: The signal is refreshed cyclically
 224:.\bsw\rte/sc_speed.h ****  *
 225:.\bsw\rte/sc_speed.h ****  * @param  SC_SPEED_t * const signal: Pointer to the signal object
 226:.\bsw\rte/sc_speed.h ****  * @return uint32_t: Number of cycles since the signal has been updated for the last time
 227:.\bsw\rte/sc_speed.h ****  */
 228:.\bsw\rte/sc_speed.h **** inline uint32_t RTE_SC_SPEED_getAge( const SC_SPEED_t * const signal )
 229:.\bsw\rte/sc_speed.h **** {
 230:.\bsw\rte/sc_speed.h ****    return signal->age;
 231:.\bsw\rte/sc_speed.h **** }
 232:.\bsw\rte/sc_speed.h **** 
 233:.\bsw\rte/sc_speed.h **** /**
 234:.\bsw\rte/sc_speed.h ****  * Should be called by application or driver if no new value can be provided.
 235:.\bsw\rte/sc_speed.h ****  * @param  SC_SPEED_t * const signal: Pointer to the signal object
 236:.\bsw\rte/sc_speed.h ****  * @param uint32_t increment: incrementvalue, typically in [ms]
 237:.\bsw\rte/sc_speed.h ****  * @return void
 238:.\bsw\rte/sc_speed.h ****  */
 239:.\bsw\rte/sc_speed.h **** inline void RTE_SC_SPEED_incAge(  SC_SPEED_t * const signal , uint32_t increment)
 240:.\bsw\rte/sc_speed.h **** {
 241:.\bsw\rte/sc_speed.h **** 	   //Hack....
 242:.\bsw\rte/sc_speed.h **** 	   if ( 0xFFFF0000 > (signal->age + increment) )
 243:.\bsw\rte/sc_speed.h **** 	   {
 244:.\bsw\rte/sc_speed.h **** 	      signal->age += increment;
 245:.\bsw\rte/sc_speed.h **** 	   }
 246:.\bsw\rte/sc_speed.h **** }
 247:.\bsw\rte/sc_speed.h **** 
 248:.\bsw\rte/sc_speed.h **** 
 249:.\bsw\rte/sc_speed.h **** /**************************************************************************************************
 250:.\bsw\rte/sc_speed.h **** /* Application Data read/write Interface																			*/
 251:.\bsw\rte/sc_speed.h **** /**************************************************************************************************
 252:.\bsw\rte/sc_speed.h **** 
 253:.\bsw\rte/sc_speed.h **** /**
 254:.\bsw\rte/sc_speed.h ****  * Returns the current application value as pointer to the signal payload.
 255:.\bsw\rte/sc_speed.h ****  * Careful: This is not threadsafe!!!
 256:.\bsw\rte/sc_speed.h ****  *
 257:.\bsw\rte/sc_speed.h ****  * @param  SC_SPEED_t * const signal: Pointer to the signal object
 258:.\bsw\rte/sc_speed.h ****  * @return sc_speed_data_t*: pointer to the current value of the application data buffer
 259:.\bsw\rte/sc_speed.h ****  *
 260:.\bsw\rte/sc_speed.h ****  **/
 261:.\bsw\rte/sc_speed.h **** inline SC_SPEED_data_t* RTE_SC_SPEED_getPtr( SC_SPEED_t * const signal )
ARM GAS  C:\Users\vboxuser\AppData\Local\Temp\cccqcqvJ.s 			page 18


 262:.\bsw\rte/sc_speed.h **** {               
 263:.\bsw\rte/sc_speed.h ****    //Todo: Critical region cannot be protected using return values																						
 264:.\bsw\rte/sc_speed.h ****    return &(signal->value);                                                                        
 265:.\bsw\rte/sc_speed.h **** }
 266:.\bsw\rte/sc_speed.h **** 
 267:.\bsw\rte/sc_speed.h **** /**
 268:.\bsw\rte/sc_speed.h ****  * Returns the current application value of the passed signal instance.
 269:.\bsw\rte/sc_speed.h ****  *
 270:.\bsw\rte/sc_speed.h ****  * @param  SC_SPEED_t * const signal: Pointer to the signal object
 271:.\bsw\rte/sc_speed.h ****  * @return sc_speed_data_t: current value of the application data buffer
 272:.\bsw\rte/sc_speed.h ****  *
 273:.\bsw\rte/sc_speed.h ****  **/
 274:.\bsw\rte/sc_speed.h **** inline SC_SPEED_data_t RTE_SC_SPEED_get( const SC_SPEED_t * const signal )
 275:.\bsw\rte/sc_speed.h **** {               
 276:.\bsw\rte/sc_speed.h ****    //Todo: Critical region cannot be protected using return values																						
 277:.\bsw\rte/sc_speed.h ****    return signal->value;                                                                           
 278:.\bsw\rte/sc_speed.h **** }                                                                                                  
 279:.\bsw\rte/sc_speed.h ****                                                                                                    
 280:.\bsw\rte/sc_speed.h **** /**
 281:.\bsw\rte/sc_speed.h ****  * Returns the current application value of the passed signal instance threadsafe.
 282:.\bsw\rte/sc_speed.h ****  *
 283:.\bsw\rte/sc_speed.h ****  * @param  SC_SPEED_t * const signal: Pointer to the signal object
 284:.\bsw\rte/sc_speed.h ****  * @param  SC_SPEED_data_t* data: Pointer to the return data Pointer to the signal object
 285:.\bsw\rte/sc_speed.h ****  * @return RC_SUCCESS
 286:.\bsw\rte/sc_speed.h ****  *
 287:.\bsw\rte/sc_speed.h ****  **/
 288:.\bsw\rte/sc_speed.h **** inline RC_t RTE_SC_SPEED_getThreadSafe( const SC_SPEED_t * const signal, SC_SPEED_data_t * const da
 289:.\bsw\rte/sc_speed.h **** {    
 290:.\bsw\rte/sc_speed.h ****    if (TRUE == signal->pSigCfg->resourceActive) GetResource(signal->pSigCfg->resource);
 291:.\bsw\rte/sc_speed.h ****    *data = signal->value;
 292:.\bsw\rte/sc_speed.h ****    if (TRUE == signal->pSigCfg->resourceActive) ReleaseResource(signal->pSigCfg->resource);        
 293:.\bsw\rte/sc_speed.h **** 
 294:.\bsw\rte/sc_speed.h ****    return RC_SUCCESS;                                                                   
 295:.\bsw\rte/sc_speed.h ****    
 296:.\bsw\rte/sc_speed.h **** }                                                                                                  
 297:.\bsw\rte/sc_speed.h ****                                                                                                    
 298:.\bsw\rte/sc_speed.h **** /**
 299:.\bsw\rte/sc_speed.h ****  * Sets a new application value to the passed signal instance by passing the new value.
 300:.\bsw\rte/sc_speed.h ****  * The corresponding driver raw value will be calculated immediately by using the default conversio
 301:.\bsw\rte/sc_speed.h ****  * signal specific scaling function.
 302:.\bsw\rte/sc_speed.h ****  * The signal age will be set to 0 and the new status will be 'RTE_SIGNALSTATUS_VALID'.
 303:.\bsw\rte/sc_speed.h ****  *
 304:.\bsw\rte/sc_speed.h ****  * @param  SC_SPEED_t * const signal: Pointer to the signal object
 305:.\bsw\rte/sc_speed.h ****  * @param  sc_speed_data_t const value: value for the application data buffer
 306:.\bsw\rte/sc_speed.h ****  * @return RC_t: standard return code, currently only RC_SUCCESS
 307:.\bsw\rte/sc_speed.h ****  *
 308:.\bsw\rte/sc_speed.h ****  **/
 309:.\bsw\rte/sc_speed.h **** inline RC_t RTE_SC_SPEED_set(SC_SPEED_t * const signal, const SC_SPEED_data_t value  )
 310:.\bsw\rte/sc_speed.h **** {
 311:.\bsw\rte/sc_speed.h **** 
 312:.\bsw\rte/sc_speed.h ****    RC_t ret = RC_SUCCESS;
 313:.\bsw\rte/sc_speed.h ****    size_t taskNum=0;
 314:.\bsw\rte/sc_speed.h **** 
 315:.\bsw\rte/sc_speed.h **** 
 316:.\bsw\rte/sc_speed.h ****    if (TRUE == signal->pSigCfg->resourceActive) GetResource(signal->pSigCfg->resource);
 250              		.loc 3 316 0
 251 0034 1F4B     		ldr	r3, .L28+4
ARM GAS  C:\Users\vboxuser\AppData\Local\Temp\cccqcqvJ.s 			page 19


 252 0036 9A68     		ldr	r2, [r3, #8]
 253              	.LVL28:
 317:.\bsw\rte/sc_speed.h ****    signal->value  = value;
 254              		.loc 3 317 0
 255 0038 1970     		strb	r1, [r3]
 318:.\bsw\rte/sc_speed.h ****    signal->age    = 0;
 256              		.loc 3 318 0
 257 003a 0021     		movs	r1, #0
 258              	.LVL29:
 259 003c 5960     		str	r1, [r3, #4]
 319:.\bsw\rte/sc_speed.h ****    signal->status = RTE_SIGNALSTATUS_VALID;
 260              		.loc 3 319 0
 261 003e 0221     		movs	r1, #2
 262 0040 5970     		strb	r1, [r3, #1]
 320:.\bsw\rte/sc_speed.h ****    if (TRUE == signal->pSigCfg->resourceActive) ReleaseResource(signal->pSigCfg->resource);
 321:.\bsw\rte/sc_speed.h **** 
 322:.\bsw\rte/sc_speed.h ****    //Pointer to the Taskarray, containing the tasks receiving the onUpdate events
 323:.\bsw\rte/sc_speed.h ****    TaskTypeArray* pTaskArray = signal->pSigCfg->onUpdateTasks;
 263              		.loc 3 323 0
 264 0042 5569     		ldr	r5, [r2, #20]
 265              	.LVL30:
 324:.\bsw\rte/sc_speed.h **** 
 325:.\bsw\rte/sc_speed.h ****    if (0 != signal->pSigCfg->evOnUpdate && NULL != pTaskArray){
 266              		.loc 3 325 0
 267 0044 9368     		ldr	r3, [r2, #8]
 268 0046 73B1     		cbz	r3, .L18
 269 0048 3DB9     		cbnz	r5, .L25
 270 004a 0CE0     		b	.L18
 271              	.LVL31:
 272              	.L20:
 273              	.LBB70:
 326:.\bsw\rte/sc_speed.h ****       for( taskNum=0 ; taskNum < signal->pSigCfg->onUpdateTaskCount ;taskNum++){
 327:.\bsw\rte/sc_speed.h **** 		  
 328:.\bsw\rte/sc_speed.h ****           TaskType task = (*pTaskArray)[taskNum];
 329:.\bsw\rte/sc_speed.h **** 	      SetEvent( task, signal->pSigCfg->evOnUpdate);
 274              		.loc 3 329 0
 275 004c 9968     		ldr	r1, [r3, #8]
 276 004e 55F82400 		ldr	r0, [r5, r4, lsl #2]
 277 0052 FFF7FEFF 		bl	EE_oo_SetEvent
 278              	.LVL32:
 279              	.LBE70:
 326:.\bsw\rte/sc_speed.h ****       for( taskNum=0 ; taskNum < signal->pSigCfg->onUpdateTaskCount ;taskNum++){
 280              		.loc 3 326 0
 281 0056 0134     		adds	r4, r4, #1
 282              	.LVL33:
 283 0058 00E0     		b	.L19
 284              	.LVL34:
 285              	.L25:
 325:.\bsw\rte/sc_speed.h ****       for( taskNum=0 ; taskNum < signal->pSigCfg->onUpdateTaskCount ;taskNum++){
 286              		.loc 3 325 0
 287 005a 0024     		movs	r4, #0
 288              	.LVL35:
 289              	.L19:
 326:.\bsw\rte/sc_speed.h ****       for( taskNum=0 ; taskNum < signal->pSigCfg->onUpdateTaskCount ;taskNum++){
 290              		.loc 3 326 0
 291 005c 154B     		ldr	r3, .L28+4
 292 005e 9B68     		ldr	r3, [r3, #8]
ARM GAS  C:\Users\vboxuser\AppData\Local\Temp\cccqcqvJ.s 			page 20


 293 0060 1A69     		ldr	r2, [r3, #16]
 294 0062 9442     		cmp	r4, r2
 295 0064 F2D3     		bcc	.L20
 296              	.LVL36:
 297              	.L18:
 298              	.LBE69:
 299              	.LBE68:
  82:asw/swc_gaspedal.c ****         }
  83:asw/swc_gaspedal.c ****         else if(joystickSignal.xPos <= JOYSTICK_DRIFTX)
  84:asw/swc_gaspedal.c ****         {
  85:asw/swc_gaspedal.c ****             speedSignal.speedValue = 0;
  86:asw/swc_gaspedal.c ****         }
  87:asw/swc_gaspedal.c ****         
  88:asw/swc_gaspedal.c **** 
  89:asw/swc_gaspedal.c ****         // Set the value to output speed signal
  90:asw/swc_gaspedal.c ****         RTE_SC_SPEED_set(&SO_SPEED_signal, speedSignal);
  91:asw/swc_gaspedal.c ****         WD_Alive(WD_RUN_CALCCONTROL); 
 300              		.loc 1 91 0
 301 0066 0120     		movs	r0, #1
 302 0068 FFF7FEFF 		bl	WD_Alive
 303              	.LVL37:
 304              	.LBE63:
 305 006c 1EE0     		b	.L14
 306              	.LVL38:
 307              	.L15:
  92:asw/swc_gaspedal.c ****         
  93:asw/swc_gaspedal.c ****     }
  94:asw/swc_gaspedal.c ****     else if(ev & ev_breakpedal_onData)
 308              		.loc 1 94 0
 309 006e 10F0040F 		tst	r0, #4
 310 0072 1BD0     		beq	.L14
 311              	.LBB71:
  95:asw/swc_gaspedal.c ****     {
  96:asw/swc_gaspedal.c ****         SC_SPEED_data_t speedSignal = SC_SPEED_INIT_DATA;
 312              		.loc 1 96 0
 313 0074 0021     		movs	r1, #0
 314              	.LVL39:
 315              	.LBB72:
 316              	.LBB73:
 316:.\bsw\rte/sc_speed.h ****    signal->value  = value;
 317              		.loc 3 316 0
 318 0076 0F4B     		ldr	r3, .L28+4
 319 0078 9A68     		ldr	r2, [r3, #8]
 317:.\bsw\rte/sc_speed.h ****    signal->age    = 0;
 320              		.loc 3 317 0
 321 007a 1970     		strb	r1, [r3]
 318:.\bsw\rte/sc_speed.h ****    signal->status = RTE_SIGNALSTATUS_VALID;
 322              		.loc 3 318 0
 323 007c 5960     		str	r1, [r3, #4]
 319:.\bsw\rte/sc_speed.h ****    if (TRUE == signal->pSigCfg->resourceActive) ReleaseResource(signal->pSigCfg->resource);
 324              		.loc 3 319 0
 325 007e 0221     		movs	r1, #2
 326 0080 5970     		strb	r1, [r3, #1]
 323:.\bsw\rte/sc_speed.h **** 
 327              		.loc 3 323 0
 328 0082 5569     		ldr	r5, [r2, #20]
 329              	.LVL40:
ARM GAS  C:\Users\vboxuser\AppData\Local\Temp\cccqcqvJ.s 			page 21


 325:.\bsw\rte/sc_speed.h ****       for( taskNum=0 ; taskNum < signal->pSigCfg->onUpdateTaskCount ;taskNum++){
 330              		.loc 3 325 0
 331 0084 9368     		ldr	r3, [r2, #8]
 332 0086 73B1     		cbz	r3, .L22
 333 0088 3DB9     		cbnz	r5, .L26
 334 008a 0CE0     		b	.L22
 335              	.LVL41:
 336              	.L24:
 337              	.LBB74:
 338              		.loc 3 329 0
 339 008c 9968     		ldr	r1, [r3, #8]
 340 008e 55F82400 		ldr	r0, [r5, r4, lsl #2]
 341 0092 FFF7FEFF 		bl	EE_oo_SetEvent
 342              	.LVL42:
 343              	.LBE74:
 326:.\bsw\rte/sc_speed.h **** 		  
 344              		.loc 3 326 0
 345 0096 0134     		adds	r4, r4, #1
 346              	.LVL43:
 347 0098 00E0     		b	.L23
 348              	.LVL44:
 349              	.L26:
 325:.\bsw\rte/sc_speed.h ****       for( taskNum=0 ; taskNum < signal->pSigCfg->onUpdateTaskCount ;taskNum++){
 350              		.loc 3 325 0
 351 009a 0024     		movs	r4, #0
 352              	.LVL45:
 353              	.L23:
 326:.\bsw\rte/sc_speed.h **** 		  
 354              		.loc 3 326 0
 355 009c 054B     		ldr	r3, .L28+4
 356 009e 9B68     		ldr	r3, [r3, #8]
 357 00a0 1A69     		ldr	r2, [r3, #16]
 358 00a2 9442     		cmp	r4, r2
 359 00a4 F2D3     		bcc	.L24
 360              	.LVL46:
 361              	.L22:
 362              	.LBE73:
 363              	.LBE72:
  97:asw/swc_gaspedal.c ****         speedSignal.speedValue = 0;
  98:asw/swc_gaspedal.c ****         RTE_SC_SPEED_set(&SO_SPEED_signal, speedSignal);
  99:asw/swc_gaspedal.c ****         WD_Alive(WD_RUN_CALCCONTROL); 
 364              		.loc 1 99 0
 365 00a6 0120     		movs	r0, #1
 366 00a8 FFF7FEFF 		bl	WD_Alive
 367              	.LVL47:
 368              	.L14:
 369              	.LBE71:
 100:asw/swc_gaspedal.c ****     }
 101:asw/swc_gaspedal.c ****     
 102:asw/swc_gaspedal.c ****     /* USER CODE END GASPEDAL_calcControl_run */
 103:asw/swc_gaspedal.c **** }
 370              		.loc 1 103 0
 371 00ac 05B0     		add	sp, sp, #20
 372              		.cfi_def_cfa_offset 12
 373              		@ sp needed
 374 00ae 30BD     		pop	{r4, r5, pc}
 375              	.L29:
ARM GAS  C:\Users\vboxuser\AppData\Local\Temp\cccqcqvJ.s 			page 22


 376              		.align	2
 377              	.L28:
 378 00b0 00000000 		.word	SO_JOYSTICK_signal
 379 00b4 00000000 		.word	SO_SPEED_signal
 380              		.cfi_endproc
 381              	.LFE181:
 382              		.size	GASPEDAL_calcControl_run, .-GASPEDAL_calcControl_run
 383              		.section	.text.GASPEDAL_setEngine_run,"ax",%progbits
 384              		.align	2
 385              		.global	GASPEDAL_setEngine_run
 386              		.thumb
 387              		.thumb_func
 388              		.type	GASPEDAL_setEngine_run, %function
 389              	GASPEDAL_setEngine_run:
 390              	.LFB182:
 104:asw/swc_gaspedal.c **** 
 105:asw/swc_gaspedal.c **** /*
 106:asw/swc_gaspedal.c ****  * component: swc_GasPedal
 107:asw/swc_gaspedal.c ****  * cycletime: 100
 108:asw/swc_gaspedal.c ****  * description: Runnable that take the input speed signal value and write it to engine(Green LED)
 109:asw/swc_gaspedal.c ****  * events: 
 110:asw/swc_gaspedal.c ****  * name: GASPEDAL_setEngine_run
 111:asw/swc_gaspedal.c ****  * shortname: setEngine
 112:asw/swc_gaspedal.c ****  * signalIN: so_speed
 113:asw/swc_gaspedal.c ****  * signalOUT: 
 114:asw/swc_gaspedal.c ****  * task: tsk_io
 115:asw/swc_gaspedal.c ****  */
 116:asw/swc_gaspedal.c **** void GASPEDAL_setEngine_run(RTE_event ev){
 391              		.loc 1 116 0
 392              		.cfi_startproc
 393              		@ args = 0, pretend = 0, frame = 0
 394              		@ frame_needed = 0, uses_anonymous_args = 0
 395              	.LVL48:
 396 0000 38B5     		push	{r3, r4, r5, lr}
 397              		.cfi_def_cfa_offset 16
 398              		.cfi_offset 3, -16
 399              		.cfi_offset 4, -12
 400              		.cfi_offset 5, -8
 401              		.cfi_offset 14, -4
 402              	.LVL49:
 117:asw/swc_gaspedal.c **** 	
 118:asw/swc_gaspedal.c **** 	/* USER CODE START GASPEDAL_setEngine_run */
 119:asw/swc_gaspedal.c ****     ev =0;
 120:asw/swc_gaspedal.c ****     
 121:asw/swc_gaspedal.c ****     SC_SPEED_data_t speedSignal = SC_SPEED_INIT_DATA;
 403              		.loc 1 121 0
 404 0002 0023     		movs	r3, #0
 405 0004 1946     		mov	r1, r3
 406              	.LVL50:
 407              	.LBB75:
 408              	.LBB76:
 186:.\bsw\rte/sc_speed.h **** }
 409              		.loc 3 186 0
 410 0006 184A     		ldr	r2, .L39
 411 0008 5278     		ldrb	r2, [r2, #1]	@ zero_extendqisi2
 412              	.LVL51:
 413              	.LBE76:
ARM GAS  C:\Users\vboxuser\AppData\Local\Temp\cccqcqvJ.s 			page 23


 414              	.LBE75:
 122:asw/swc_gaspedal.c ****     static uint32_t speedSignalAge = 0;
 123:asw/swc_gaspedal.c ****     
 124:asw/swc_gaspedal.c ****     SC_ENGINE_data_t engineSignal = SC_ENGINE_INIT_DATA;
 125:asw/swc_gaspedal.c ****     
 126:asw/swc_gaspedal.c ****     
 127:asw/swc_gaspedal.c ****     // Get speed signal and check valid
 128:asw/swc_gaspedal.c ****     if(RTE_SC_SPEED_getStatus(&SO_SPEED_signal) == RTE_SIGNALSTATUS_VALID) {
 415              		.loc 1 128 0
 416 000a 022A     		cmp	r2, #2
 417 000c 01D1     		bne	.L31
 418              	.LVL52:
 129:asw/swc_gaspedal.c ****         speedSignal.speedValue = RTE_SC_SPEED_get(&SO_SPEED_signal).speedValue;
 419              		.loc 1 129 0
 420 000e 164A     		ldr	r2, .L39
 421 0010 1178     		ldrb	r1, [r2]	@ zero_extendqisi2
 422              	.L31:
 423              	.LVL53:
 424              	.LBB77:
 425              	.LBB78:
 230:.\bsw\rte/sc_speed.h **** }
 426              		.loc 3 230 0
 427 0012 154A     		ldr	r2, .L39
 428 0014 5268     		ldr	r2, [r2, #4]
 429              	.LVL54:
 430              	.LBE78:
 431              	.LBE77:
 130:asw/swc_gaspedal.c ****     }
 131:asw/swc_gaspedal.c ****     
 132:asw/swc_gaspedal.c ****     // Check speed signal Age
 133:asw/swc_gaspedal.c ****     // If age > 500ms , turn off engine 
 134:asw/swc_gaspedal.c ****     // Advanced error handling required later on !!!!
 135:asw/swc_gaspedal.c ****     speedSignalAge = RTE_SC_SPEED_getAge(&SO_SPEED_signal);
 136:asw/swc_gaspedal.c ****     
 137:asw/swc_gaspedal.c ****     if(speedSignalAge < 500) {
 432              		.loc 1 137 0
 433 0016 B2F5FA7F 		cmp	r2, #500
 434 001a 00D2     		bcs	.L32
 435              	.LVL55:
 138:asw/swc_gaspedal.c ****         engineSignal.engineValue = speedSignal.speedValue;
 436              		.loc 1 138 0
 437 001c 0B46     		mov	r3, r1
 438              	.LVL56:
 439              	.L32:
 440              	.LBB79:
 441              	.LBB80:
 442              		.file 4 ".\\bsw\\rte/sc_engine.h"
   1:.\bsw\rte/sc_engine.h **** 
   2:.\bsw\rte/sc_engine.h **** 
   3:.\bsw\rte/sc_engine.h **** /**
   4:.\bsw\rte/sc_engine.h ****  *  file    SC_ENGINE_signal.h
   5:.\bsw\rte/sc_engine.h ****  *
   6:.\bsw\rte/sc_engine.h ****  *  brief   signal base class for signal sc_engine
   7:.\bsw\rte/sc_engine.h ****  *
   8:.\bsw\rte/sc_engine.h ****  *  author  Autogenerated, Peter Fromm       <peter.fromm@h-da.de>
   9:.\bsw\rte/sc_engine.h ****  *
  10:.\bsw\rte/sc_engine.h ****  * description: Engine signal class
ARM GAS  C:\Users\vboxuser\AppData\Local\Temp\cccqcqvJ.s 			page 24


  11:.\bsw\rte/sc_engine.h ****  * name: sc_engine
  12:.\bsw\rte/sc_engine.h ****  * shortname: engine
  13:.\bsw\rte/sc_engine.h ****  *
  14:.\bsw\rte/sc_engine.h ****  */
  15:.\bsw\rte/sc_engine.h **** 
  16:.\bsw\rte/sc_engine.h **** 
  17:.\bsw\rte/sc_engine.h **** 
  18:.\bsw\rte/sc_engine.h **** #ifndef SC_ENGINE_SIGNAL_H_INCLUDED
  19:.\bsw\rte/sc_engine.h **** #define SC_ENGINE_SIGNAL_H_INCLUDED
  20:.\bsw\rte/sc_engine.h **** 
  21:.\bsw\rte/sc_engine.h **** /*================================================[ public includes  ]=============================
  22:.\bsw\rte/sc_engine.h **** #include "global.h"
  23:.\bsw\rte/sc_engine.h **** #include "project.h"
  24:.\bsw\rte/sc_engine.h **** #include "rte.h"
  25:.\bsw\rte/sc_engine.h **** #include "rte_types.h"
  26:.\bsw\rte/sc_engine.h **** 
  27:.\bsw\rte/sc_engine.h **** #include "sc_engine_type.h"
  28:.\bsw\rte/sc_engine.h **** 
  29:.\bsw\rte/sc_engine.h **** 
  30:.\bsw\rte/sc_engine.h **** /**************************************************************************************************
  31:.\bsw\rte/sc_engine.h **** /* The driver API block																						*/
  32:.\bsw\rte/sc_engine.h **** /**************************************************************************************************
  33:.\bsw\rte/sc_engine.h ****                                                                                                    
  34:.\bsw\rte/sc_engine.h **** /**
  35:.\bsw\rte/sc_engine.h ****  *  Definition of function types for driver interfaces.
  36:.\bsw\rte/sc_engine.h ****  *  I-Port
  37:.\bsw\rte/sc_engine.h ****  */
  38:.\bsw\rte/sc_engine.h **** typedef RC_t (*SC_ENGINE_driverIn_t)(SC_ENGINE_data_t * const);
  39:.\bsw\rte/sc_engine.h **** 
  40:.\bsw\rte/sc_engine.h **** /**
  41:.\bsw\rte/sc_engine.h ****  *  Definition of function types for driver interfaces.
  42:.\bsw\rte/sc_engine.h ****  *  O-Port
  43:.\bsw\rte/sc_engine.h ****  */
  44:.\bsw\rte/sc_engine.h **** typedef RC_t (*SC_ENGINE_driverOut_t)( const SC_ENGINE_data_t * const);
  45:.\bsw\rte/sc_engine.h **** 
  46:.\bsw\rte/sc_engine.h **** 
  47:.\bsw\rte/sc_engine.h **** /**************************************************************************************************
  48:.\bsw\rte/sc_engine.h **** /* The signal configuration API block																				*/
  49:.\bsw\rte/sc_engine.h **** /**************************************************************************************************
  50:.\bsw\rte/sc_engine.h **** 
  51:.\bsw\rte/sc_engine.h **** /**
  52:.\bsw\rte/sc_engine.h ****  * Instances of the struct SC_ENGINE_cfg_t represent the signal object configuration.
  53:.\bsw\rte/sc_engine.h ****  */
  54:.\bsw\rte/sc_engine.h **** struct SC_ENGINE_cfg_s
  55:.\bsw\rte/sc_engine.h **** {
  56:.\bsw\rte/sc_engine.h ****     /**
  57:.\bsw\rte/sc_engine.h ****      * Function pointer to the input driver
  58:.\bsw\rte/sc_engine.h ****      */
  59:.\bsw\rte/sc_engine.h ****     SC_ENGINE_driverIn_t const inDriver;
  60:.\bsw\rte/sc_engine.h **** 
  61:.\bsw\rte/sc_engine.h ****     /**
  62:.\bsw\rte/sc_engine.h ****      * Function pointer to the output driver table
  63:.\bsw\rte/sc_engine.h ****      */
  64:.\bsw\rte/sc_engine.h ****    SC_ENGINE_driverOut_t const outDriver;
  65:.\bsw\rte/sc_engine.h ****    
  66:.\bsw\rte/sc_engine.h ****     /**
  67:.\bsw\rte/sc_engine.h ****      * Event onUpdate
ARM GAS  C:\Users\vboxuser\AppData\Local\Temp\cccqcqvJ.s 			page 25


  68:.\bsw\rte/sc_engine.h ****      */
  69:.\bsw\rte/sc_engine.h ****     EventMaskType const evOnUpdate;
  70:.\bsw\rte/sc_engine.h ****     
  71:.\bsw\rte/sc_engine.h ****     
  72:.\bsw\rte/sc_engine.h ****     /**
  73:.\bsw\rte/sc_engine.h ****      * Event onError
  74:.\bsw\rte/sc_engine.h ****      */
  75:.\bsw\rte/sc_engine.h ****     EventMaskType const evOnError;
  76:.\bsw\rte/sc_engine.h ****     
  77:.\bsw\rte/sc_engine.h ****     /**
  78:.\bsw\rte/sc_engine.h ****      * Task Count onUpdate
  79:.\bsw\rte/sc_engine.h ****      */
  80:.\bsw\rte/sc_engine.h ****     size_t const onUpdateTaskCount;
  81:.\bsw\rte/sc_engine.h **** 
  82:.\bsw\rte/sc_engine.h ****     /**
  83:.\bsw\rte/sc_engine.h ****      * Task List onUpdate
  84:.\bsw\rte/sc_engine.h ****      */
  85:.\bsw\rte/sc_engine.h ****     TaskTypeArray* const onUpdateTasks;
  86:.\bsw\rte/sc_engine.h ****     
  87:.\bsw\rte/sc_engine.h ****     /**
  88:.\bsw\rte/sc_engine.h ****      * Task Count onError
  89:.\bsw\rte/sc_engine.h ****      */
  90:.\bsw\rte/sc_engine.h ****     size_t const onErrorTaskCount;
  91:.\bsw\rte/sc_engine.h **** 
  92:.\bsw\rte/sc_engine.h ****     /**
  93:.\bsw\rte/sc_engine.h ****      * Task List onError
  94:.\bsw\rte/sc_engine.h ****      */
  95:.\bsw\rte/sc_engine.h ****     TaskTypeArray* const onErrorTasks;
  96:.\bsw\rte/sc_engine.h **** 	
  97:.\bsw\rte/sc_engine.h **** 	
  98:.\bsw\rte/sc_engine.h **** 	/**
  99:.\bsw\rte/sc_engine.h **** 	 * Ressourse is active? We need an additional boolean as a ressource value 0 is valid.
 100:.\bsw\rte/sc_engine.h **** 	 */
 101:.\bsw\rte/sc_engine.h **** 	 boolean_t const resourceActive;
 102:.\bsw\rte/sc_engine.h **** 	 
 103:.\bsw\rte/sc_engine.h **** 	/**
 104:.\bsw\rte/sc_engine.h **** 	 * Ressourse 
 105:.\bsw\rte/sc_engine.h **** 	 */
 106:.\bsw\rte/sc_engine.h **** 	 ResourceType const resource;
 107:.\bsw\rte/sc_engine.h **** 
 108:.\bsw\rte/sc_engine.h **** };                                                                                                 
 109:.\bsw\rte/sc_engine.h **** typedef const struct SC_ENGINE_cfg_s SC_ENGINE_cfg_t;
 110:.\bsw\rte/sc_engine.h ****                               
 111:.\bsw\rte/sc_engine.h **** /**************************************************************************************************
 112:.\bsw\rte/sc_engine.h **** /* The data interface block																							*/
 113:.\bsw\rte/sc_engine.h **** /**************************************************************************************************
 114:.\bsw\rte/sc_engine.h **** 
 115:.\bsw\rte/sc_engine.h ****                                                                                                    
 116:.\bsw\rte/sc_engine.h **** 							  
 117:.\bsw\rte/sc_engine.h **** /**
 118:.\bsw\rte/sc_engine.h ****  * Instances of the struct SC_ENGINE_t represent the signal objects.
 119:.\bsw\rte/sc_engine.h ****  * A signal object contains the current application value 'value' as well as relevant meta data.
 120:.\bsw\rte/sc_engine.h ****  */
 121:.\bsw\rte/sc_engine.h **** struct SC_ENGINE_s
 122:.\bsw\rte/sc_engine.h **** {                                                                                                  
 123:.\bsw\rte/sc_engine.h **** 
 124:.\bsw\rte/sc_engine.h **** 	/**
ARM GAS  C:\Users\vboxuser\AppData\Local\Temp\cccqcqvJ.s 			page 26


 125:.\bsw\rte/sc_engine.h **** 	 * Data buffer for the application value
 126:.\bsw\rte/sc_engine.h **** 	 */
 127:.\bsw\rte/sc_engine.h ****     SC_ENGINE_data_t value;
 128:.\bsw\rte/sc_engine.h **** 
 129:.\bsw\rte/sc_engine.h ****     /**
 130:.\bsw\rte/sc_engine.h ****      * Current signal status
 131:.\bsw\rte/sc_engine.h ****      */
 132:.\bsw\rte/sc_engine.h ****     RTE_signalStatus_t status;
 133:.\bsw\rte/sc_engine.h **** 
 134:.\bsw\rte/sc_engine.h ****     /**
 135:.\bsw\rte/sc_engine.h ****      * Current age of the signal (in calling cycles)
 136:.\bsw\rte/sc_engine.h ****      */
 137:.\bsw\rte/sc_engine.h ****     uint32_t age;
 138:.\bsw\rte/sc_engine.h **** 
 139:.\bsw\rte/sc_engine.h ****     /**
 140:.\bsw\rte/sc_engine.h ****      * Pointer to the signal configuration
 141:.\bsw\rte/sc_engine.h ****      */
 142:.\bsw\rte/sc_engine.h **** 	const SC_ENGINE_cfg_t * const    pSigCfg;
 143:.\bsw\rte/sc_engine.h **** 
 144:.\bsw\rte/sc_engine.h **** };                                                                                                 
 145:.\bsw\rte/sc_engine.h **** typedef struct SC_ENGINE_s SC_ENGINE_t;
 146:.\bsw\rte/sc_engine.h **** 
 147:.\bsw\rte/sc_engine.h **** /**************************************************************************************************
 148:.\bsw\rte/sc_engine.h **** /* Signal initialisation   																							*/
 149:.\bsw\rte/sc_engine.h **** /**************************************************************************************************
 150:.\bsw\rte/sc_engine.h **** 
 151:.\bsw\rte/sc_engine.h **** /**
 152:.\bsw\rte/sc_engine.h ****  * Initializes a signal instance with a passed init value.
 153:.\bsw\rte/sc_engine.h ****  * Depending on the configured conversion or scaling function the raw_value will be calculated.
 154:.\bsw\rte/sc_engine.h ****  * Signal status will change from RTE_SIGNALSTATUS_STARTUP to RTE_SIGNALSTATUS_INITIALIZED.
 155:.\bsw\rte/sc_engine.h ****  *
 156:.\bsw\rte/sc_engine.h ****  * @param  SC_ENGINE_t * const signal: Pointer to the signal object which will be initialised
 157:.\bsw\rte/sc_engine.h ****  * @return RC_t: standard return code, currently only RC_SUCCESS
 158:.\bsw\rte/sc_engine.h ****  *
 159:.\bsw\rte/sc_engine.h ****  **/
 160:.\bsw\rte/sc_engine.h **** inline RC_t RTE_SC_ENGINE_init( SC_ENGINE_t * const signal )
 161:.\bsw\rte/sc_engine.h **** {                                                                                                  
 162:.\bsw\rte/sc_engine.h **** 
 163:.\bsw\rte/sc_engine.h ****    RC_t ret = RC_SUCCESS;
 164:.\bsw\rte/sc_engine.h **** 
 165:.\bsw\rte/sc_engine.h ****    //Set value and raw value
 166:.\bsw\rte/sc_engine.h ****    signal->value  = SC_ENGINE_INIT_DATA;
 167:.\bsw\rte/sc_engine.h ****    signal->age    = 0;
 168:.\bsw\rte/sc_engine.h ****    signal->status = RTE_SIGNALSTATUS_INITIALIZED;
 169:.\bsw\rte/sc_engine.h **** 
 170:.\bsw\rte/sc_engine.h ****    return ret;
 171:.\bsw\rte/sc_engine.h **** }
 172:.\bsw\rte/sc_engine.h **** 
 173:.\bsw\rte/sc_engine.h **** /**************************************************************************************************
 174:.\bsw\rte/sc_engine.h **** /* Status and timeout control																						*/
 175:.\bsw\rte/sc_engine.h **** /**************************************************************************************************
 176:.\bsw\rte/sc_engine.h **** 
 177:.\bsw\rte/sc_engine.h **** /**
 178:.\bsw\rte/sc_engine.h ****  *  Returns the current signal status of the passed signal instance.
 179:.\bsw\rte/sc_engine.h ****  *
 180:.\bsw\rte/sc_engine.h ****  * @param  SC_ENGINE_t * const signal: Pointer to the signal object
 181:.\bsw\rte/sc_engine.h ****  * @return  sig_status_t: The current signal status
ARM GAS  C:\Users\vboxuser\AppData\Local\Temp\cccqcqvJ.s 			page 27


 182:.\bsw\rte/sc_engine.h ****  *
 183:.\bsw\rte/sc_engine.h ****  **/
 184:.\bsw\rte/sc_engine.h **** inline RTE_signalStatus_t RTE_SC_ENGINE_getStatus( const SC_ENGINE_t * const signal )
 185:.\bsw\rte/sc_engine.h **** {
 186:.\bsw\rte/sc_engine.h ****    return signal->status;
 187:.\bsw\rte/sc_engine.h **** }
 188:.\bsw\rte/sc_engine.h **** 
 189:.\bsw\rte/sc_engine.h **** 
 190:.\bsw\rte/sc_engine.h **** /**
 191:.\bsw\rte/sc_engine.h ****  *  Sets a new signal status of the passed signal instance by passing the new status.
 192:.\bsw\rte/sc_engine.h ****  *
 193:.\bsw\rte/sc_engine.h ****  * @param  SC_ENGINE_t * const signal: Pointer to the signal object
 194:.\bsw\rte/sc_engine.h ****  * @param  const sig_status_t status: New signal status
 195:.\bsw\rte/sc_engine.h ****  * @return RC_t: standard return code, currently only RC_SUCCESS
 196:.\bsw\rte/sc_engine.h ****  *
 197:.\bsw\rte/sc_engine.h ****  */
 198:.\bsw\rte/sc_engine.h **** inline RC_t RTE_SC_ENGINE_setStatus( SC_ENGINE_t * const signal, const RTE_signalStatus_t status )
 199:.\bsw\rte/sc_engine.h **** {
 200:.\bsw\rte/sc_engine.h ****    signal->status = status;
 201:.\bsw\rte/sc_engine.h ****    size_t taskNum=0;
 202:.\bsw\rte/sc_engine.h ****    
 203:.\bsw\rte/sc_engine.h ****    //Fire error events in case of invalid state
 204:.\bsw\rte/sc_engine.h ****    if (signal->status == RTE_SIGNALSTATUS_INVALID)
 205:.\bsw\rte/sc_engine.h ****    {
 206:.\bsw\rte/sc_engine.h **** 	    //Pointer to the Taskarray, containing the tasks receiving the onUpdate events
 207:.\bsw\rte/sc_engine.h **** 		TaskTypeArray* pTaskArray = signal->pSigCfg->onErrorTasks;
 208:.\bsw\rte/sc_engine.h **** 
 209:.\bsw\rte/sc_engine.h **** 		if (0 != signal->pSigCfg->evOnError && NULL != pTaskArray){
 210:.\bsw\rte/sc_engine.h **** 			for( taskNum=0 ; taskNum < signal->pSigCfg->onErrorTaskCount ;taskNum++){
 211:.\bsw\rte/sc_engine.h **** 				TaskType task = (*pTaskArray)[taskNum];
 212:.\bsw\rte/sc_engine.h **** 				SetEvent( task, signal->pSigCfg->evOnError);
 213:.\bsw\rte/sc_engine.h **** 			}
 214:.\bsw\rte/sc_engine.h **** 		}
 215:.\bsw\rte/sc_engine.h ****    }
 216:.\bsw\rte/sc_engine.h ****    
 217:.\bsw\rte/sc_engine.h ****    return RC_SUCCESS;
 218:.\bsw\rte/sc_engine.h **** }
 219:.\bsw\rte/sc_engine.h **** 
 220:.\bsw\rte/sc_engine.h **** 
 221:.\bsw\rte/sc_engine.h **** /**
 222:.\bsw\rte/sc_engine.h ****  * Returns the count of refreshing trials (refresh, set or set_raw) that failed.
 223:.\bsw\rte/sc_engine.h ****  * Prerquisite: The signal is refreshed cyclically
 224:.\bsw\rte/sc_engine.h ****  *
 225:.\bsw\rte/sc_engine.h ****  * @param  SC_ENGINE_t * const signal: Pointer to the signal object
 226:.\bsw\rte/sc_engine.h ****  * @return uint32_t: Number of cycles since the signal has been updated for the last time
 227:.\bsw\rte/sc_engine.h ****  */
 228:.\bsw\rte/sc_engine.h **** inline uint32_t RTE_SC_ENGINE_getAge( const SC_ENGINE_t * const signal )
 229:.\bsw\rte/sc_engine.h **** {
 230:.\bsw\rte/sc_engine.h ****    return signal->age;
 231:.\bsw\rte/sc_engine.h **** }
 232:.\bsw\rte/sc_engine.h **** 
 233:.\bsw\rte/sc_engine.h **** /**
 234:.\bsw\rte/sc_engine.h ****  * Should be called by application or driver if no new value can be provided.
 235:.\bsw\rte/sc_engine.h ****  * @param  SC_ENGINE_t * const signal: Pointer to the signal object
 236:.\bsw\rte/sc_engine.h ****  * @param uint32_t increment: incrementvalue, typically in [ms]
 237:.\bsw\rte/sc_engine.h ****  * @return void
 238:.\bsw\rte/sc_engine.h ****  */
ARM GAS  C:\Users\vboxuser\AppData\Local\Temp\cccqcqvJ.s 			page 28


 239:.\bsw\rte/sc_engine.h **** inline void RTE_SC_ENGINE_incAge(  SC_ENGINE_t * const signal , uint32_t increment)
 240:.\bsw\rte/sc_engine.h **** {
 241:.\bsw\rte/sc_engine.h **** 	   //Hack....
 242:.\bsw\rte/sc_engine.h **** 	   if ( 0xFFFF0000 > (signal->age + increment) )
 243:.\bsw\rte/sc_engine.h **** 	   {
 244:.\bsw\rte/sc_engine.h **** 	      signal->age += increment;
 245:.\bsw\rte/sc_engine.h **** 	   }
 246:.\bsw\rte/sc_engine.h **** }
 247:.\bsw\rte/sc_engine.h **** 
 248:.\bsw\rte/sc_engine.h **** 
 249:.\bsw\rte/sc_engine.h **** /**************************************************************************************************
 250:.\bsw\rte/sc_engine.h **** /* Application Data read/write Interface																			*/
 251:.\bsw\rte/sc_engine.h **** /**************************************************************************************************
 252:.\bsw\rte/sc_engine.h **** 
 253:.\bsw\rte/sc_engine.h **** /**
 254:.\bsw\rte/sc_engine.h ****  * Returns the current application value as pointer to the signal payload.
 255:.\bsw\rte/sc_engine.h ****  * Careful: This is not threadsafe!!!
 256:.\bsw\rte/sc_engine.h ****  *
 257:.\bsw\rte/sc_engine.h ****  * @param  SC_ENGINE_t * const signal: Pointer to the signal object
 258:.\bsw\rte/sc_engine.h ****  * @return sc_engine_data_t*: pointer to the current value of the application data buffer
 259:.\bsw\rte/sc_engine.h ****  *
 260:.\bsw\rte/sc_engine.h ****  **/
 261:.\bsw\rte/sc_engine.h **** inline SC_ENGINE_data_t* RTE_SC_ENGINE_getPtr( SC_ENGINE_t * const signal )
 262:.\bsw\rte/sc_engine.h **** {               
 263:.\bsw\rte/sc_engine.h ****    //Todo: Critical region cannot be protected using return values																						
 264:.\bsw\rte/sc_engine.h ****    return &(signal->value);                                                                        
 265:.\bsw\rte/sc_engine.h **** }
 266:.\bsw\rte/sc_engine.h **** 
 267:.\bsw\rte/sc_engine.h **** /**
 268:.\bsw\rte/sc_engine.h ****  * Returns the current application value of the passed signal instance.
 269:.\bsw\rte/sc_engine.h ****  *
 270:.\bsw\rte/sc_engine.h ****  * @param  SC_ENGINE_t * const signal: Pointer to the signal object
 271:.\bsw\rte/sc_engine.h ****  * @return sc_engine_data_t: current value of the application data buffer
 272:.\bsw\rte/sc_engine.h ****  *
 273:.\bsw\rte/sc_engine.h ****  **/
 274:.\bsw\rte/sc_engine.h **** inline SC_ENGINE_data_t RTE_SC_ENGINE_get( const SC_ENGINE_t * const signal )
 275:.\bsw\rte/sc_engine.h **** {               
 276:.\bsw\rte/sc_engine.h ****    //Todo: Critical region cannot be protected using return values																						
 277:.\bsw\rte/sc_engine.h ****    return signal->value;                                                                           
 278:.\bsw\rte/sc_engine.h **** }                                                                                                  
 279:.\bsw\rte/sc_engine.h ****                                                                                                    
 280:.\bsw\rte/sc_engine.h **** /**
 281:.\bsw\rte/sc_engine.h ****  * Returns the current application value of the passed signal instance threadsafe.
 282:.\bsw\rte/sc_engine.h ****  *
 283:.\bsw\rte/sc_engine.h ****  * @param  SC_ENGINE_t * const signal: Pointer to the signal object
 284:.\bsw\rte/sc_engine.h ****  * @param  SC_ENGINE_data_t* data: Pointer to the return data Pointer to the signal object
 285:.\bsw\rte/sc_engine.h ****  * @return RC_SUCCESS
 286:.\bsw\rte/sc_engine.h ****  *
 287:.\bsw\rte/sc_engine.h ****  **/
 288:.\bsw\rte/sc_engine.h **** inline RC_t RTE_SC_ENGINE_getThreadSafe( const SC_ENGINE_t * const signal, SC_ENGINE_data_t * const
 289:.\bsw\rte/sc_engine.h **** {    
 290:.\bsw\rte/sc_engine.h ****    if (TRUE == signal->pSigCfg->resourceActive) GetResource(signal->pSigCfg->resource);
 291:.\bsw\rte/sc_engine.h ****    *data = signal->value;
 292:.\bsw\rte/sc_engine.h ****    if (TRUE == signal->pSigCfg->resourceActive) ReleaseResource(signal->pSigCfg->resource);        
 293:.\bsw\rte/sc_engine.h **** 
 294:.\bsw\rte/sc_engine.h ****    return RC_SUCCESS;                                                                   
 295:.\bsw\rte/sc_engine.h ****    
ARM GAS  C:\Users\vboxuser\AppData\Local\Temp\cccqcqvJ.s 			page 29


 296:.\bsw\rte/sc_engine.h **** }                                                                                                  
 297:.\bsw\rte/sc_engine.h ****                                                                                                    
 298:.\bsw\rte/sc_engine.h **** /**
 299:.\bsw\rte/sc_engine.h ****  * Sets a new application value to the passed signal instance by passing the new value.
 300:.\bsw\rte/sc_engine.h ****  * The corresponding driver raw value will be calculated immediately by using the default conversio
 301:.\bsw\rte/sc_engine.h ****  * signal specific scaling function.
 302:.\bsw\rte/sc_engine.h ****  * The signal age will be set to 0 and the new status will be 'RTE_SIGNALSTATUS_VALID'.
 303:.\bsw\rte/sc_engine.h ****  *
 304:.\bsw\rte/sc_engine.h ****  * @param  SC_ENGINE_t * const signal: Pointer to the signal object
 305:.\bsw\rte/sc_engine.h ****  * @param  sc_engine_data_t const value: value for the application data buffer
 306:.\bsw\rte/sc_engine.h ****  * @return RC_t: standard return code, currently only RC_SUCCESS
 307:.\bsw\rte/sc_engine.h ****  *
 308:.\bsw\rte/sc_engine.h ****  **/
 309:.\bsw\rte/sc_engine.h **** inline RC_t RTE_SC_ENGINE_set(SC_ENGINE_t * const signal, const SC_ENGINE_data_t value  )
 310:.\bsw\rte/sc_engine.h **** {
 311:.\bsw\rte/sc_engine.h **** 
 312:.\bsw\rte/sc_engine.h ****    RC_t ret = RC_SUCCESS;
 313:.\bsw\rte/sc_engine.h ****    size_t taskNum=0;
 314:.\bsw\rte/sc_engine.h **** 
 315:.\bsw\rte/sc_engine.h **** 
 316:.\bsw\rte/sc_engine.h ****    if (TRUE == signal->pSigCfg->resourceActive) GetResource(signal->pSigCfg->resource);
 443              		.loc 4 316 0
 444 001e 134A     		ldr	r2, .L39+4
 445 0020 9168     		ldr	r1, [r2, #8]
 446              	.LVL57:
 317:.\bsw\rte/sc_engine.h ****    signal->value  = value;
 447              		.loc 4 317 0
 448 0022 1370     		strb	r3, [r2]
 318:.\bsw\rte/sc_engine.h ****    signal->age    = 0;
 449              		.loc 4 318 0
 450 0024 0023     		movs	r3, #0
 451              	.LVL58:
 452 0026 5360     		str	r3, [r2, #4]
 319:.\bsw\rte/sc_engine.h ****    signal->status = RTE_SIGNALSTATUS_VALID;
 453              		.loc 4 319 0
 454 0028 0223     		movs	r3, #2
 455 002a 5370     		strb	r3, [r2, #1]
 320:.\bsw\rte/sc_engine.h ****    if (TRUE == signal->pSigCfg->resourceActive) ReleaseResource(signal->pSigCfg->resource);
 321:.\bsw\rte/sc_engine.h **** 
 322:.\bsw\rte/sc_engine.h ****    //Pointer to the Taskarray, containing the tasks receiving the onUpdate events
 323:.\bsw\rte/sc_engine.h ****    TaskTypeArray* pTaskArray = signal->pSigCfg->onUpdateTasks;
 456              		.loc 4 323 0
 457 002c 4D69     		ldr	r5, [r1, #20]
 458              	.LVL59:
 324:.\bsw\rte/sc_engine.h **** 
 325:.\bsw\rte/sc_engine.h ****    if (0 != signal->pSigCfg->evOnUpdate && NULL != pTaskArray){
 459              		.loc 4 325 0
 460 002e 8B68     		ldr	r3, [r1, #8]
 461 0030 73B1     		cbz	r3, .L33
 462 0032 3DB9     		cbnz	r5, .L37
 463 0034 0CE0     		b	.L33
 464              	.LVL60:
 465              	.L35:
 466              	.LBB81:
 326:.\bsw\rte/sc_engine.h ****       for( taskNum=0 ; taskNum < signal->pSigCfg->onUpdateTaskCount ;taskNum++){
 327:.\bsw\rte/sc_engine.h **** 		  
 328:.\bsw\rte/sc_engine.h ****           TaskType task = (*pTaskArray)[taskNum];
ARM GAS  C:\Users\vboxuser\AppData\Local\Temp\cccqcqvJ.s 			page 30


 329:.\bsw\rte/sc_engine.h **** 	      SetEvent( task, signal->pSigCfg->evOnUpdate);
 467              		.loc 4 329 0
 468 0036 9968     		ldr	r1, [r3, #8]
 469 0038 55F82400 		ldr	r0, [r5, r4, lsl #2]
 470 003c FFF7FEFF 		bl	EE_oo_SetEvent
 471              	.LVL61:
 472              	.LBE81:
 326:.\bsw\rte/sc_engine.h ****       for( taskNum=0 ; taskNum < signal->pSigCfg->onUpdateTaskCount ;taskNum++){
 473              		.loc 4 326 0
 474 0040 0134     		adds	r4, r4, #1
 475              	.LVL62:
 476 0042 00E0     		b	.L34
 477              	.LVL63:
 478              	.L37:
 325:.\bsw\rte/sc_engine.h ****       for( taskNum=0 ; taskNum < signal->pSigCfg->onUpdateTaskCount ;taskNum++){
 479              		.loc 4 325 0
 480 0044 0024     		movs	r4, #0
 481              	.LVL64:
 482              	.L34:
 326:.\bsw\rte/sc_engine.h ****       for( taskNum=0 ; taskNum < signal->pSigCfg->onUpdateTaskCount ;taskNum++){
 483              		.loc 4 326 0
 484 0046 094B     		ldr	r3, .L39+4
 485 0048 9B68     		ldr	r3, [r3, #8]
 486 004a 1A69     		ldr	r2, [r3, #16]
 487 004c 9442     		cmp	r4, r2
 488 004e F2D3     		bcc	.L35
 489              	.LVL65:
 490              	.L33:
 491              	.LBE80:
 492              	.LBE79:
 139:asw/swc_gaspedal.c ****     }
 140:asw/swc_gaspedal.c ****     else{
 141:asw/swc_gaspedal.c ****         engineSignal.engineValue = 0;
 142:asw/swc_gaspedal.c ****         //UART_LOG_PutString("Too old speed signal data");  
 143:asw/swc_gaspedal.c ****     }
 144:asw/swc_gaspedal.c ****     
 145:asw/swc_gaspedal.c ****     RTE_SC_ENGINE_set(&SO_ENGINE_signal, engineSignal);
 146:asw/swc_gaspedal.c ****     WD_Alive(WD_RUN_SETENGINE); 
 493              		.loc 1 146 0
 494 0050 0220     		movs	r0, #2
 495 0052 FFF7FEFF 		bl	WD_Alive
 496              	.LVL66:
 497              	.LBB82:
 498              	.LBB83:
 330:.\bsw\rte/sc_engine.h ****       }
 331:.\bsw\rte/sc_engine.h ****    }
 332:.\bsw\rte/sc_engine.h **** 
 333:.\bsw\rte/sc_engine.h ****    return ret;
 334:.\bsw\rte/sc_engine.h **** }                                                                                                  
 335:.\bsw\rte/sc_engine.h ****                                                                                                    
 336:.\bsw\rte/sc_engine.h ****                                                                                                    
 337:.\bsw\rte/sc_engine.h **** /**************************************************************************************************
 338:.\bsw\rte/sc_engine.h **** /* Call functions to the connected drivers																			*/
 339:.\bsw\rte/sc_engine.h **** /**************************************************************************************************
 340:.\bsw\rte/sc_engine.h **** 
 341:.\bsw\rte/sc_engine.h ****                                                                                                    
 342:.\bsw\rte/sc_engine.h **** /**
ARM GAS  C:\Users\vboxuser\AppData\Local\Temp\cccqcqvJ.s 			page 31


 343:.\bsw\rte/sc_engine.h ****  *  Calls the connected driver interface to get a new value.
 344:.\bsw\rte/sc_engine.h ****  *
 345:.\bsw\rte/sc_engine.h ****  * @param SC_ENGINE_t * const signal: Pointer to the signal object
 346:.\bsw\rte/sc_engine.h ****  * @return  RC_t: Return value of the driver call
 347:.\bsw\rte/sc_engine.h ****  *
 348:.\bsw\rte/sc_engine.h ****  */
 349:.\bsw\rte/sc_engine.h **** inline RC_t RTE_SC_ENGINE_pullPort( SC_ENGINE_t * const signal )
 350:.\bsw\rte/sc_engine.h **** {                                                                                                  
 351:.\bsw\rte/sc_engine.h ****    RC_t ret = RC_SUCCESS;
 352:.\bsw\rte/sc_engine.h **** 
 353:.\bsw\rte/sc_engine.h ****                                                                                                    
 354:.\bsw\rte/sc_engine.h ****    if ( NULL != signal->pSigCfg->inDriver )
 355:.\bsw\rte/sc_engine.h ****    {
 356:.\bsw\rte/sc_engine.h **** 	  SC_ENGINE_data_t value = signal->value;
 357:.\bsw\rte/sc_engine.h ****       ret = signal->pSigCfg->inDriver(&value);
 358:.\bsw\rte/sc_engine.h ****                                                                                                    
 359:.\bsw\rte/sc_engine.h ****       if ( ret == RC_SUCCESS )                                                                     
 360:.\bsw\rte/sc_engine.h ****       {
 361:.\bsw\rte/sc_engine.h ****     	  //Critical Section
 362:.\bsw\rte/sc_engine.h ****     	  RTE_SC_ENGINE_set(signal, value);
 363:.\bsw\rte/sc_engine.h ****       }
 364:.\bsw\rte/sc_engine.h ****       else
 365:.\bsw\rte/sc_engine.h ****       {
 366:.\bsw\rte/sc_engine.h **** 		  //Signal is invalid. Error event (if present) will be fired
 367:.\bsw\rte/sc_engine.h **** 		  RTE_SC_ENGINE_setStatus(signal, RTE_SIGNALSTATUS_INVALID);
 368:.\bsw\rte/sc_engine.h ****       }
 369:.\bsw\rte/sc_engine.h **** 
 370:.\bsw\rte/sc_engine.h ****    }                                                                                               
 371:.\bsw\rte/sc_engine.h ****                                                                                                    
 372:.\bsw\rte/sc_engine.h ****    return ret;                                                                                     
 373:.\bsw\rte/sc_engine.h **** }                                                                                                  
 374:.\bsw\rte/sc_engine.h ****                                                                                                    
 375:.\bsw\rte/sc_engine.h **** /**
 376:.\bsw\rte/sc_engine.h ****  *  Calls the connected driver interfaces to send a value. Value will not be sent if it is INVALID.
 377:.\bsw\rte/sc_engine.h ****  *
 378:.\bsw\rte/sc_engine.h ****  * @param SC_ENGINE_t * const signal: Pointer to the signal object
 379:.\bsw\rte/sc_engine.h ****  * @return  RC_t: Return value of the driver call
 380:.\bsw\rte/sc_engine.h ****  *
 381:.\bsw\rte/sc_engine.h ****  **/
 382:.\bsw\rte/sc_engine.h **** inline RC_t RTE_SC_ENGINE_pushPort( const SC_ENGINE_t * const signal )
 383:.\bsw\rte/sc_engine.h **** {                                                                                                  
 384:.\bsw\rte/sc_engine.h ****    RC_t ret = RC_ERROR;
 385:.\bsw\rte/sc_engine.h **** 
 386:.\bsw\rte/sc_engine.h ****    if (RTE_SIGNALSTATUS_VALID == signal->status)
 499              		.loc 4 386 0
 500 0056 054B     		ldr	r3, .L39+4
 501 0058 5B78     		ldrb	r3, [r3, #1]	@ zero_extendqisi2
 502 005a 022B     		cmp	r3, #2
 503 005c 03D1     		bne	.L30
 387:.\bsw\rte/sc_engine.h ****    {
 388:.\bsw\rte/sc_engine.h **** 	   ret = signal->pSigCfg->outDriver(&(signal->value));
 504              		.loc 4 388 0
 505 005e 0348     		ldr	r0, .L39+4
 506 0060 8368     		ldr	r3, [r0, #8]
 507 0062 5B68     		ldr	r3, [r3, #4]
 508 0064 9847     		blx	r3
 509              	.LVL67:
ARM GAS  C:\Users\vboxuser\AppData\Local\Temp\cccqcqvJ.s 			page 32


 510              	.L30:
 511 0066 38BD     		pop	{r3, r4, r5, pc}
 512              	.L40:
 513              		.align	2
 514              	.L39:
 515 0068 00000000 		.word	SO_SPEED_signal
 516 006c 00000000 		.word	SO_ENGINE_signal
 517              	.LBE83:
 518              	.LBE82:
 519              		.cfi_endproc
 520              	.LFE182:
 521              		.size	GASPEDAL_setEngine_run, .-GASPEDAL_setEngine_run
 522              		.section	.text.GASPEDAL_setBrakeLight_run,"ax",%progbits
 523              		.align	2
 524              		.global	GASPEDAL_setBrakeLight_run
 525              		.thumb
 526              		.thumb_func
 527              		.type	GASPEDAL_setBrakeLight_run, %function
 528              	GASPEDAL_setBrakeLight_run:
 529              	.LFB183:
 147:asw/swc_gaspedal.c ****     // Driver out of signal is LED Driver -> push out data to peripheral
 148:asw/swc_gaspedal.c ****     if (RTE_SC_ENGINE_pushPort(&SO_ENGINE_signal) != RC_SUCCESS){
 149:asw/swc_gaspedal.c ****         // Further error handling 
 150:asw/swc_gaspedal.c ****     }
 151:asw/swc_gaspedal.c ****     
 152:asw/swc_gaspedal.c ****     /* USER CODE END GASPEDAL_setEngine_run */
 153:asw/swc_gaspedal.c **** }
 154:asw/swc_gaspedal.c **** 
 155:asw/swc_gaspedal.c **** /*
 156:asw/swc_gaspedal.c ****  * component: swc_GasPedal
 157:asw/swc_gaspedal.c ****  * cycletime: 0
 158:asw/swc_gaspedal.c ****  * description: Runnable
 159:asw/swc_gaspedal.c ****  * events: ev_speed_onData
 160:asw/swc_gaspedal.c ****  * name: GASPEDAL_setBrakeLight_run
 161:asw/swc_gaspedal.c ****  * shortname: setBrakeLight
 162:asw/swc_gaspedal.c ****  * signalIN: so_speed
 163:asw/swc_gaspedal.c ****  * signalOUT: so_breakLight
 164:asw/swc_gaspedal.c ****  * task: tsk_io
 165:asw/swc_gaspedal.c ****  */
 166:asw/swc_gaspedal.c **** void GASPEDAL_setBrakeLight_run(RTE_event ev){
 530              		.loc 1 166 0
 531              		.cfi_startproc
 532              		@ args = 0, pretend = 0, frame = 0
 533              		@ frame_needed = 0, uses_anonymous_args = 0
 534              	.LVL68:
 167:asw/swc_gaspedal.c **** 	
 168:asw/swc_gaspedal.c **** 	/* USER CODE START GASPEDAL_setBrakeLight_run */
 169:asw/swc_gaspedal.c ****     
 170:asw/swc_gaspedal.c ****     if (ev & ev_speed_onData){
 535              		.loc 1 170 0
 536 0000 10F0100F 		tst	r0, #16
 537 0004 33D0     		beq	.L51
 166:asw/swc_gaspedal.c **** 	
 538              		.loc 1 166 0
 539 0006 38B5     		push	{r3, r4, r5, lr}
 540              		.cfi_def_cfa_offset 16
 541              		.cfi_offset 3, -16
ARM GAS  C:\Users\vboxuser\AppData\Local\Temp\cccqcqvJ.s 			page 33


 542              		.cfi_offset 4, -12
 543              		.cfi_offset 5, -8
 544              		.cfi_offset 14, -4
 545              	.LBB84:
 171:asw/swc_gaspedal.c ****         
 172:asw/swc_gaspedal.c ****         
 173:asw/swc_gaspedal.c ****         SC_SPEED_data_t speedSignal = SC_SPEED_INIT_DATA;
 546              		.loc 1 173 0
 547 0008 4FF00003 		mov	r3, #0
 548              	.LVL69:
 549              	.LBB85:
 550              	.LBB86:
 186:.\bsw\rte/sc_speed.h **** }
 551              		.loc 3 186 0
 552 000c 184A     		ldr	r2, .L52
 553 000e 5278     		ldrb	r2, [r2, #1]	@ zero_extendqisi2
 554              	.LVL70:
 555              	.LBE86:
 556              	.LBE85:
 174:asw/swc_gaspedal.c ****     
 175:asw/swc_gaspedal.c ****         // Get a valid speed signal
 176:asw/swc_gaspedal.c ****         if(RTE_SC_SPEED_getStatus(&SO_SPEED_signal) == RTE_SIGNALSTATUS_VALID){
 557              		.loc 1 176 0
 558 0010 022A     		cmp	r2, #2
 559 0012 01D1     		bne	.L43
 560              	.LVL71:
 561 0014 164B     		ldr	r3, .L52
 562 0016 1B78     		ldrb	r3, [r3]	@ zero_extendqisi2
 563              	.LVL72:
 564              	.L43:
 177:asw/swc_gaspedal.c ****             speedSignal = RTE_SC_SPEED_get(&SO_SPEED_signal);
 178:asw/swc_gaspedal.c ****         }
 179:asw/swc_gaspedal.c ****         SC_BREAKLIGHT_data_t brakeLight = SC_BREAKLIGHT_INIT_DATA;
 565              		.loc 1 179 0
 566 0018 4FF00001 		mov	r1, #0
 567              	.LVL73:
 180:asw/swc_gaspedal.c ****         
 181:asw/swc_gaspedal.c ****         if(speedSignal.speedValue == 0){
 568              		.loc 1 181 0
 569 001c DBB2     		uxtb	r3, r3
 570              	.LVL74:
 571 001e 0BB9     		cbnz	r3, .L44
 182:asw/swc_gaspedal.c ****             brakeLight.breakLightStatus = TRUE;
 572              		.loc 1 182 0
 573 0020 4FF00101 		mov	r1, #1
 574              	.L44:
 575              	.LVL75:
 576              	.LBB87:
 577              	.LBB88:
 578              		.file 5 ".\\bsw\\rte/sc_breaklight.h"
   1:.\bsw\rte/sc_breaklight.h **** 
   2:.\bsw\rte/sc_breaklight.h **** 
   3:.\bsw\rte/sc_breaklight.h **** /**
   4:.\bsw\rte/sc_breaklight.h ****  *  file    SC_BREAKLIGHT_signal.h
   5:.\bsw\rte/sc_breaklight.h ****  *
   6:.\bsw\rte/sc_breaklight.h ****  *  brief   signal base class for signal sc_breaklight
   7:.\bsw\rte/sc_breaklight.h ****  *
ARM GAS  C:\Users\vboxuser\AppData\Local\Temp\cccqcqvJ.s 			page 34


   8:.\bsw\rte/sc_breaklight.h ****  *  author  Autogenerated, Peter Fromm       <peter.fromm@h-da.de>
   9:.\bsw\rte/sc_breaklight.h ****  *
  10:.\bsw\rte/sc_breaklight.h ****  * description: Break Light signal class
  11:.\bsw\rte/sc_breaklight.h ****  * name: sc_breakLight
  12:.\bsw\rte/sc_breaklight.h ****  * shortname: breakLight
  13:.\bsw\rte/sc_breaklight.h ****  *
  14:.\bsw\rte/sc_breaklight.h ****  */
  15:.\bsw\rte/sc_breaklight.h **** 
  16:.\bsw\rte/sc_breaklight.h **** 
  17:.\bsw\rte/sc_breaklight.h **** 
  18:.\bsw\rte/sc_breaklight.h **** #ifndef SC_BREAKLIGHT_SIGNAL_H_INCLUDED
  19:.\bsw\rte/sc_breaklight.h **** #define SC_BREAKLIGHT_SIGNAL_H_INCLUDED
  20:.\bsw\rte/sc_breaklight.h **** 
  21:.\bsw\rte/sc_breaklight.h **** /*================================================[ public includes  ]=============================
  22:.\bsw\rte/sc_breaklight.h **** #include "global.h"
  23:.\bsw\rte/sc_breaklight.h **** #include "project.h"
  24:.\bsw\rte/sc_breaklight.h **** #include "rte.h"
  25:.\bsw\rte/sc_breaklight.h **** #include "rte_types.h"
  26:.\bsw\rte/sc_breaklight.h **** 
  27:.\bsw\rte/sc_breaklight.h **** #include "sc_breaklight_type.h"
  28:.\bsw\rte/sc_breaklight.h **** 
  29:.\bsw\rte/sc_breaklight.h **** 
  30:.\bsw\rte/sc_breaklight.h **** /**************************************************************************************************
  31:.\bsw\rte/sc_breaklight.h **** /* The driver API block																						*/
  32:.\bsw\rte/sc_breaklight.h **** /**************************************************************************************************
  33:.\bsw\rte/sc_breaklight.h ****                                                                                                    
  34:.\bsw\rte/sc_breaklight.h **** /**
  35:.\bsw\rte/sc_breaklight.h ****  *  Definition of function types for driver interfaces.
  36:.\bsw\rte/sc_breaklight.h ****  *  I-Port
  37:.\bsw\rte/sc_breaklight.h ****  */
  38:.\bsw\rte/sc_breaklight.h **** typedef RC_t (*SC_BREAKLIGHT_driverIn_t)(SC_BREAKLIGHT_data_t * const);
  39:.\bsw\rte/sc_breaklight.h **** 
  40:.\bsw\rte/sc_breaklight.h **** /**
  41:.\bsw\rte/sc_breaklight.h ****  *  Definition of function types for driver interfaces.
  42:.\bsw\rte/sc_breaklight.h ****  *  O-Port
  43:.\bsw\rte/sc_breaklight.h ****  */
  44:.\bsw\rte/sc_breaklight.h **** typedef RC_t (*SC_BREAKLIGHT_driverOut_t)( const SC_BREAKLIGHT_data_t * const);
  45:.\bsw\rte/sc_breaklight.h **** 
  46:.\bsw\rte/sc_breaklight.h **** 
  47:.\bsw\rte/sc_breaklight.h **** /**************************************************************************************************
  48:.\bsw\rte/sc_breaklight.h **** /* The signal configuration API block																				*/
  49:.\bsw\rte/sc_breaklight.h **** /**************************************************************************************************
  50:.\bsw\rte/sc_breaklight.h **** 
  51:.\bsw\rte/sc_breaklight.h **** /**
  52:.\bsw\rte/sc_breaklight.h ****  * Instances of the struct SC_BREAKLIGHT_cfg_t represent the signal object configuration.
  53:.\bsw\rte/sc_breaklight.h ****  */
  54:.\bsw\rte/sc_breaklight.h **** struct SC_BREAKLIGHT_cfg_s
  55:.\bsw\rte/sc_breaklight.h **** {
  56:.\bsw\rte/sc_breaklight.h ****     /**
  57:.\bsw\rte/sc_breaklight.h ****      * Function pointer to the input driver
  58:.\bsw\rte/sc_breaklight.h ****      */
  59:.\bsw\rte/sc_breaklight.h ****     SC_BREAKLIGHT_driverIn_t const inDriver;
  60:.\bsw\rte/sc_breaklight.h **** 
  61:.\bsw\rte/sc_breaklight.h ****     /**
  62:.\bsw\rte/sc_breaklight.h ****      * Function pointer to the output driver table
  63:.\bsw\rte/sc_breaklight.h ****      */
  64:.\bsw\rte/sc_breaklight.h ****    SC_BREAKLIGHT_driverOut_t const outDriver;
ARM GAS  C:\Users\vboxuser\AppData\Local\Temp\cccqcqvJ.s 			page 35


  65:.\bsw\rte/sc_breaklight.h ****    
  66:.\bsw\rte/sc_breaklight.h ****     /**
  67:.\bsw\rte/sc_breaklight.h ****      * Event onUpdate
  68:.\bsw\rte/sc_breaklight.h ****      */
  69:.\bsw\rte/sc_breaklight.h ****     EventMaskType const evOnUpdate;
  70:.\bsw\rte/sc_breaklight.h ****     
  71:.\bsw\rte/sc_breaklight.h ****     
  72:.\bsw\rte/sc_breaklight.h ****     /**
  73:.\bsw\rte/sc_breaklight.h ****      * Event onError
  74:.\bsw\rte/sc_breaklight.h ****      */
  75:.\bsw\rte/sc_breaklight.h ****     EventMaskType const evOnError;
  76:.\bsw\rte/sc_breaklight.h ****     
  77:.\bsw\rte/sc_breaklight.h ****     /**
  78:.\bsw\rte/sc_breaklight.h ****      * Task Count onUpdate
  79:.\bsw\rte/sc_breaklight.h ****      */
  80:.\bsw\rte/sc_breaklight.h ****     size_t const onUpdateTaskCount;
  81:.\bsw\rte/sc_breaklight.h **** 
  82:.\bsw\rte/sc_breaklight.h ****     /**
  83:.\bsw\rte/sc_breaklight.h ****      * Task List onUpdate
  84:.\bsw\rte/sc_breaklight.h ****      */
  85:.\bsw\rte/sc_breaklight.h ****     TaskTypeArray* const onUpdateTasks;
  86:.\bsw\rte/sc_breaklight.h ****     
  87:.\bsw\rte/sc_breaklight.h ****     /**
  88:.\bsw\rte/sc_breaklight.h ****      * Task Count onError
  89:.\bsw\rte/sc_breaklight.h ****      */
  90:.\bsw\rte/sc_breaklight.h ****     size_t const onErrorTaskCount;
  91:.\bsw\rte/sc_breaklight.h **** 
  92:.\bsw\rte/sc_breaklight.h ****     /**
  93:.\bsw\rte/sc_breaklight.h ****      * Task List onError
  94:.\bsw\rte/sc_breaklight.h ****      */
  95:.\bsw\rte/sc_breaklight.h ****     TaskTypeArray* const onErrorTasks;
  96:.\bsw\rte/sc_breaklight.h **** 	
  97:.\bsw\rte/sc_breaklight.h **** 	
  98:.\bsw\rte/sc_breaklight.h **** 	/**
  99:.\bsw\rte/sc_breaklight.h **** 	 * Ressourse is active? We need an additional boolean as a ressource value 0 is valid.
 100:.\bsw\rte/sc_breaklight.h **** 	 */
 101:.\bsw\rte/sc_breaklight.h **** 	 boolean_t const resourceActive;
 102:.\bsw\rte/sc_breaklight.h **** 	 
 103:.\bsw\rte/sc_breaklight.h **** 	/**
 104:.\bsw\rte/sc_breaklight.h **** 	 * Ressourse 
 105:.\bsw\rte/sc_breaklight.h **** 	 */
 106:.\bsw\rte/sc_breaklight.h **** 	 ResourceType const resource;
 107:.\bsw\rte/sc_breaklight.h **** 
 108:.\bsw\rte/sc_breaklight.h **** };                                                                                                 
 109:.\bsw\rte/sc_breaklight.h **** typedef const struct SC_BREAKLIGHT_cfg_s SC_BREAKLIGHT_cfg_t;
 110:.\bsw\rte/sc_breaklight.h ****                               
 111:.\bsw\rte/sc_breaklight.h **** /**************************************************************************************************
 112:.\bsw\rte/sc_breaklight.h **** /* The data interface block																							*/
 113:.\bsw\rte/sc_breaklight.h **** /**************************************************************************************************
 114:.\bsw\rte/sc_breaklight.h **** 
 115:.\bsw\rte/sc_breaklight.h ****                                                                                                    
 116:.\bsw\rte/sc_breaklight.h **** 							  
 117:.\bsw\rte/sc_breaklight.h **** /**
 118:.\bsw\rte/sc_breaklight.h ****  * Instances of the struct SC_BREAKLIGHT_t represent the signal objects.
 119:.\bsw\rte/sc_breaklight.h ****  * A signal object contains the current application value 'value' as well as relevant meta data.
 120:.\bsw\rte/sc_breaklight.h ****  */
 121:.\bsw\rte/sc_breaklight.h **** struct SC_BREAKLIGHT_s
ARM GAS  C:\Users\vboxuser\AppData\Local\Temp\cccqcqvJ.s 			page 36


 122:.\bsw\rte/sc_breaklight.h **** {                                                                                                  
 123:.\bsw\rte/sc_breaklight.h **** 
 124:.\bsw\rte/sc_breaklight.h **** 	/**
 125:.\bsw\rte/sc_breaklight.h **** 	 * Data buffer for the application value
 126:.\bsw\rte/sc_breaklight.h **** 	 */
 127:.\bsw\rte/sc_breaklight.h ****     SC_BREAKLIGHT_data_t value;
 128:.\bsw\rte/sc_breaklight.h **** 
 129:.\bsw\rte/sc_breaklight.h ****     /**
 130:.\bsw\rte/sc_breaklight.h ****      * Current signal status
 131:.\bsw\rte/sc_breaklight.h ****      */
 132:.\bsw\rte/sc_breaklight.h ****     RTE_signalStatus_t status;
 133:.\bsw\rte/sc_breaklight.h **** 
 134:.\bsw\rte/sc_breaklight.h ****     /**
 135:.\bsw\rte/sc_breaklight.h ****      * Current age of the signal (in calling cycles)
 136:.\bsw\rte/sc_breaklight.h ****      */
 137:.\bsw\rte/sc_breaklight.h ****     uint32_t age;
 138:.\bsw\rte/sc_breaklight.h **** 
 139:.\bsw\rte/sc_breaklight.h ****     /**
 140:.\bsw\rte/sc_breaklight.h ****      * Pointer to the signal configuration
 141:.\bsw\rte/sc_breaklight.h ****      */
 142:.\bsw\rte/sc_breaklight.h **** 	const SC_BREAKLIGHT_cfg_t * const    pSigCfg;
 143:.\bsw\rte/sc_breaklight.h **** 
 144:.\bsw\rte/sc_breaklight.h **** };                                                                                                 
 145:.\bsw\rte/sc_breaklight.h **** typedef struct SC_BREAKLIGHT_s SC_BREAKLIGHT_t;
 146:.\bsw\rte/sc_breaklight.h **** 
 147:.\bsw\rte/sc_breaklight.h **** /**************************************************************************************************
 148:.\bsw\rte/sc_breaklight.h **** /* Signal initialisation   																							*/
 149:.\bsw\rte/sc_breaklight.h **** /**************************************************************************************************
 150:.\bsw\rte/sc_breaklight.h **** 
 151:.\bsw\rte/sc_breaklight.h **** /**
 152:.\bsw\rte/sc_breaklight.h ****  * Initializes a signal instance with a passed init value.
 153:.\bsw\rte/sc_breaklight.h ****  * Depending on the configured conversion or scaling function the raw_value will be calculated.
 154:.\bsw\rte/sc_breaklight.h ****  * Signal status will change from RTE_SIGNALSTATUS_STARTUP to RTE_SIGNALSTATUS_INITIALIZED.
 155:.\bsw\rte/sc_breaklight.h ****  *
 156:.\bsw\rte/sc_breaklight.h ****  * @param  SC_BREAKLIGHT_t * const signal: Pointer to the signal object which will be initialised
 157:.\bsw\rte/sc_breaklight.h ****  * @return RC_t: standard return code, currently only RC_SUCCESS
 158:.\bsw\rte/sc_breaklight.h ****  *
 159:.\bsw\rte/sc_breaklight.h ****  **/
 160:.\bsw\rte/sc_breaklight.h **** inline RC_t RTE_SC_BREAKLIGHT_init( SC_BREAKLIGHT_t * const signal )
 161:.\bsw\rte/sc_breaklight.h **** {                                                                                                  
 162:.\bsw\rte/sc_breaklight.h **** 
 163:.\bsw\rte/sc_breaklight.h ****    RC_t ret = RC_SUCCESS;
 164:.\bsw\rte/sc_breaklight.h **** 
 165:.\bsw\rte/sc_breaklight.h ****    //Set value and raw value
 166:.\bsw\rte/sc_breaklight.h ****    signal->value  = SC_BREAKLIGHT_INIT_DATA;
 167:.\bsw\rte/sc_breaklight.h ****    signal->age    = 0;
 168:.\bsw\rte/sc_breaklight.h ****    signal->status = RTE_SIGNALSTATUS_INITIALIZED;
 169:.\bsw\rte/sc_breaklight.h **** 
 170:.\bsw\rte/sc_breaklight.h ****    return ret;
 171:.\bsw\rte/sc_breaklight.h **** }
 172:.\bsw\rte/sc_breaklight.h **** 
 173:.\bsw\rte/sc_breaklight.h **** /**************************************************************************************************
 174:.\bsw\rte/sc_breaklight.h **** /* Status and timeout control																						*/
 175:.\bsw\rte/sc_breaklight.h **** /**************************************************************************************************
 176:.\bsw\rte/sc_breaklight.h **** 
 177:.\bsw\rte/sc_breaklight.h **** /**
 178:.\bsw\rte/sc_breaklight.h ****  *  Returns the current signal status of the passed signal instance.
ARM GAS  C:\Users\vboxuser\AppData\Local\Temp\cccqcqvJ.s 			page 37


 179:.\bsw\rte/sc_breaklight.h ****  *
 180:.\bsw\rte/sc_breaklight.h ****  * @param  SC_BREAKLIGHT_t * const signal: Pointer to the signal object
 181:.\bsw\rte/sc_breaklight.h ****  * @return  sig_status_t: The current signal status
 182:.\bsw\rte/sc_breaklight.h ****  *
 183:.\bsw\rte/sc_breaklight.h ****  **/
 184:.\bsw\rte/sc_breaklight.h **** inline RTE_signalStatus_t RTE_SC_BREAKLIGHT_getStatus( const SC_BREAKLIGHT_t * const signal )
 185:.\bsw\rte/sc_breaklight.h **** {
 186:.\bsw\rte/sc_breaklight.h ****    return signal->status;
 187:.\bsw\rte/sc_breaklight.h **** }
 188:.\bsw\rte/sc_breaklight.h **** 
 189:.\bsw\rte/sc_breaklight.h **** 
 190:.\bsw\rte/sc_breaklight.h **** /**
 191:.\bsw\rte/sc_breaklight.h ****  *  Sets a new signal status of the passed signal instance by passing the new status.
 192:.\bsw\rte/sc_breaklight.h ****  *
 193:.\bsw\rte/sc_breaklight.h ****  * @param  SC_BREAKLIGHT_t * const signal: Pointer to the signal object
 194:.\bsw\rte/sc_breaklight.h ****  * @param  const sig_status_t status: New signal status
 195:.\bsw\rte/sc_breaklight.h ****  * @return RC_t: standard return code, currently only RC_SUCCESS
 196:.\bsw\rte/sc_breaklight.h ****  *
 197:.\bsw\rte/sc_breaklight.h ****  */
 198:.\bsw\rte/sc_breaklight.h **** inline RC_t RTE_SC_BREAKLIGHT_setStatus( SC_BREAKLIGHT_t * const signal, const RTE_signalStatus_t s
 199:.\bsw\rte/sc_breaklight.h **** {
 200:.\bsw\rte/sc_breaklight.h ****    signal->status = status;
 201:.\bsw\rte/sc_breaklight.h ****    size_t taskNum=0;
 202:.\bsw\rte/sc_breaklight.h ****    
 203:.\bsw\rte/sc_breaklight.h ****    //Fire error events in case of invalid state
 204:.\bsw\rte/sc_breaklight.h ****    if (signal->status == RTE_SIGNALSTATUS_INVALID)
 205:.\bsw\rte/sc_breaklight.h ****    {
 206:.\bsw\rte/sc_breaklight.h **** 	    //Pointer to the Taskarray, containing the tasks receiving the onUpdate events
 207:.\bsw\rte/sc_breaklight.h **** 		TaskTypeArray* pTaskArray = signal->pSigCfg->onErrorTasks;
 208:.\bsw\rte/sc_breaklight.h **** 
 209:.\bsw\rte/sc_breaklight.h **** 		if (0 != signal->pSigCfg->evOnError && NULL != pTaskArray){
 210:.\bsw\rte/sc_breaklight.h **** 			for( taskNum=0 ; taskNum < signal->pSigCfg->onErrorTaskCount ;taskNum++){
 211:.\bsw\rte/sc_breaklight.h **** 				TaskType task = (*pTaskArray)[taskNum];
 212:.\bsw\rte/sc_breaklight.h **** 				SetEvent( task, signal->pSigCfg->evOnError);
 213:.\bsw\rte/sc_breaklight.h **** 			}
 214:.\bsw\rte/sc_breaklight.h **** 		}
 215:.\bsw\rte/sc_breaklight.h ****    }
 216:.\bsw\rte/sc_breaklight.h ****    
 217:.\bsw\rte/sc_breaklight.h ****    return RC_SUCCESS;
 218:.\bsw\rte/sc_breaklight.h **** }
 219:.\bsw\rte/sc_breaklight.h **** 
 220:.\bsw\rte/sc_breaklight.h **** 
 221:.\bsw\rte/sc_breaklight.h **** /**
 222:.\bsw\rte/sc_breaklight.h ****  * Returns the count of refreshing trials (refresh, set or set_raw) that failed.
 223:.\bsw\rte/sc_breaklight.h ****  * Prerquisite: The signal is refreshed cyclically
 224:.\bsw\rte/sc_breaklight.h ****  *
 225:.\bsw\rte/sc_breaklight.h ****  * @param  SC_BREAKLIGHT_t * const signal: Pointer to the signal object
 226:.\bsw\rte/sc_breaklight.h ****  * @return uint32_t: Number of cycles since the signal has been updated for the last time
 227:.\bsw\rte/sc_breaklight.h ****  */
 228:.\bsw\rte/sc_breaklight.h **** inline uint32_t RTE_SC_BREAKLIGHT_getAge( const SC_BREAKLIGHT_t * const signal )
 229:.\bsw\rte/sc_breaklight.h **** {
 230:.\bsw\rte/sc_breaklight.h ****    return signal->age;
 231:.\bsw\rte/sc_breaklight.h **** }
 232:.\bsw\rte/sc_breaklight.h **** 
 233:.\bsw\rte/sc_breaklight.h **** /**
 234:.\bsw\rte/sc_breaklight.h ****  * Should be called by application or driver if no new value can be provided.
 235:.\bsw\rte/sc_breaklight.h ****  * @param  SC_BREAKLIGHT_t * const signal: Pointer to the signal object
ARM GAS  C:\Users\vboxuser\AppData\Local\Temp\cccqcqvJ.s 			page 38


 236:.\bsw\rte/sc_breaklight.h ****  * @param uint32_t increment: incrementvalue, typically in [ms]
 237:.\bsw\rte/sc_breaklight.h ****  * @return void
 238:.\bsw\rte/sc_breaklight.h ****  */
 239:.\bsw\rte/sc_breaklight.h **** inline void RTE_SC_BREAKLIGHT_incAge(  SC_BREAKLIGHT_t * const signal , uint32_t increment)
 240:.\bsw\rte/sc_breaklight.h **** {
 241:.\bsw\rte/sc_breaklight.h **** 	   //Hack....
 242:.\bsw\rte/sc_breaklight.h **** 	   if ( 0xFFFF0000 > (signal->age + increment) )
 243:.\bsw\rte/sc_breaklight.h **** 	   {
 244:.\bsw\rte/sc_breaklight.h **** 	      signal->age += increment;
 245:.\bsw\rte/sc_breaklight.h **** 	   }
 246:.\bsw\rte/sc_breaklight.h **** }
 247:.\bsw\rte/sc_breaklight.h **** 
 248:.\bsw\rte/sc_breaklight.h **** 
 249:.\bsw\rte/sc_breaklight.h **** /**************************************************************************************************
 250:.\bsw\rte/sc_breaklight.h **** /* Application Data read/write Interface																			*/
 251:.\bsw\rte/sc_breaklight.h **** /**************************************************************************************************
 252:.\bsw\rte/sc_breaklight.h **** 
 253:.\bsw\rte/sc_breaklight.h **** /**
 254:.\bsw\rte/sc_breaklight.h ****  * Returns the current application value as pointer to the signal payload.
 255:.\bsw\rte/sc_breaklight.h ****  * Careful: This is not threadsafe!!!
 256:.\bsw\rte/sc_breaklight.h ****  *
 257:.\bsw\rte/sc_breaklight.h ****  * @param  SC_BREAKLIGHT_t * const signal: Pointer to the signal object
 258:.\bsw\rte/sc_breaklight.h ****  * @return sc_breaklight_data_t*: pointer to the current value of the application data buffer
 259:.\bsw\rte/sc_breaklight.h ****  *
 260:.\bsw\rte/sc_breaklight.h ****  **/
 261:.\bsw\rte/sc_breaklight.h **** inline SC_BREAKLIGHT_data_t* RTE_SC_BREAKLIGHT_getPtr( SC_BREAKLIGHT_t * const signal )
 262:.\bsw\rte/sc_breaklight.h **** {               
 263:.\bsw\rte/sc_breaklight.h ****    //Todo: Critical region cannot be protected using return values																						
 264:.\bsw\rte/sc_breaklight.h ****    return &(signal->value);                                                                        
 265:.\bsw\rte/sc_breaklight.h **** }
 266:.\bsw\rte/sc_breaklight.h **** 
 267:.\bsw\rte/sc_breaklight.h **** /**
 268:.\bsw\rte/sc_breaklight.h ****  * Returns the current application value of the passed signal instance.
 269:.\bsw\rte/sc_breaklight.h ****  *
 270:.\bsw\rte/sc_breaklight.h ****  * @param  SC_BREAKLIGHT_t * const signal: Pointer to the signal object
 271:.\bsw\rte/sc_breaklight.h ****  * @return sc_breaklight_data_t: current value of the application data buffer
 272:.\bsw\rte/sc_breaklight.h ****  *
 273:.\bsw\rte/sc_breaklight.h ****  **/
 274:.\bsw\rte/sc_breaklight.h **** inline SC_BREAKLIGHT_data_t RTE_SC_BREAKLIGHT_get( const SC_BREAKLIGHT_t * const signal )
 275:.\bsw\rte/sc_breaklight.h **** {               
 276:.\bsw\rte/sc_breaklight.h ****    //Todo: Critical region cannot be protected using return values																						
 277:.\bsw\rte/sc_breaklight.h ****    return signal->value;                                                                           
 278:.\bsw\rte/sc_breaklight.h **** }                                                                                                  
 279:.\bsw\rte/sc_breaklight.h ****                                                                                                    
 280:.\bsw\rte/sc_breaklight.h **** /**
 281:.\bsw\rte/sc_breaklight.h ****  * Returns the current application value of the passed signal instance threadsafe.
 282:.\bsw\rte/sc_breaklight.h ****  *
 283:.\bsw\rte/sc_breaklight.h ****  * @param  SC_BREAKLIGHT_t * const signal: Pointer to the signal object
 284:.\bsw\rte/sc_breaklight.h ****  * @param  SC_BREAKLIGHT_data_t* data: Pointer to the return data Pointer to the signal object
 285:.\bsw\rte/sc_breaklight.h ****  * @return RC_SUCCESS
 286:.\bsw\rte/sc_breaklight.h ****  *
 287:.\bsw\rte/sc_breaklight.h ****  **/
 288:.\bsw\rte/sc_breaklight.h **** inline RC_t RTE_SC_BREAKLIGHT_getThreadSafe( const SC_BREAKLIGHT_t * const signal, SC_BREAKLIGHT_da
 289:.\bsw\rte/sc_breaklight.h **** {    
 290:.\bsw\rte/sc_breaklight.h ****    if (TRUE == signal->pSigCfg->resourceActive) GetResource(signal->pSigCfg->resource);
 291:.\bsw\rte/sc_breaklight.h ****    *data = signal->value;
 292:.\bsw\rte/sc_breaklight.h ****    if (TRUE == signal->pSigCfg->resourceActive) ReleaseResource(signal->pSigCfg->resource);        
ARM GAS  C:\Users\vboxuser\AppData\Local\Temp\cccqcqvJ.s 			page 39


 293:.\bsw\rte/sc_breaklight.h **** 
 294:.\bsw\rte/sc_breaklight.h ****    return RC_SUCCESS;                                                                   
 295:.\bsw\rte/sc_breaklight.h ****    
 296:.\bsw\rte/sc_breaklight.h **** }                                                                                                  
 297:.\bsw\rte/sc_breaklight.h ****                                                                                                    
 298:.\bsw\rte/sc_breaklight.h **** /**
 299:.\bsw\rte/sc_breaklight.h ****  * Sets a new application value to the passed signal instance by passing the new value.
 300:.\bsw\rte/sc_breaklight.h ****  * The corresponding driver raw value will be calculated immediately by using the default conversio
 301:.\bsw\rte/sc_breaklight.h ****  * signal specific scaling function.
 302:.\bsw\rte/sc_breaklight.h ****  * The signal age will be set to 0 and the new status will be 'RTE_SIGNALSTATUS_VALID'.
 303:.\bsw\rte/sc_breaklight.h ****  *
 304:.\bsw\rte/sc_breaklight.h ****  * @param  SC_BREAKLIGHT_t * const signal: Pointer to the signal object
 305:.\bsw\rte/sc_breaklight.h ****  * @param  sc_breaklight_data_t const value: value for the application data buffer
 306:.\bsw\rte/sc_breaklight.h ****  * @return RC_t: standard return code, currently only RC_SUCCESS
 307:.\bsw\rte/sc_breaklight.h ****  *
 308:.\bsw\rte/sc_breaklight.h ****  **/
 309:.\bsw\rte/sc_breaklight.h **** inline RC_t RTE_SC_BREAKLIGHT_set(SC_BREAKLIGHT_t * const signal, const SC_BREAKLIGHT_data_t value 
 310:.\bsw\rte/sc_breaklight.h **** {
 311:.\bsw\rte/sc_breaklight.h **** 
 312:.\bsw\rte/sc_breaklight.h ****    RC_t ret = RC_SUCCESS;
 313:.\bsw\rte/sc_breaklight.h ****    size_t taskNum=0;
 314:.\bsw\rte/sc_breaklight.h **** 
 315:.\bsw\rte/sc_breaklight.h **** 
 316:.\bsw\rte/sc_breaklight.h ****    if (TRUE == signal->pSigCfg->resourceActive) GetResource(signal->pSigCfg->resource);
 579              		.loc 5 316 0
 580 0024 134B     		ldr	r3, .L52+4
 581 0026 9A68     		ldr	r2, [r3, #8]
 582              	.LVL76:
 317:.\bsw\rte/sc_breaklight.h ****    signal->value  = value;
 583              		.loc 5 317 0
 584 0028 1970     		strb	r1, [r3]
 318:.\bsw\rte/sc_breaklight.h ****    signal->age    = 0;
 585              		.loc 5 318 0
 586 002a 0021     		movs	r1, #0
 587              	.LVL77:
 588 002c 5960     		str	r1, [r3, #4]
 319:.\bsw\rte/sc_breaklight.h ****    signal->status = RTE_SIGNALSTATUS_VALID;
 589              		.loc 5 319 0
 590 002e 0221     		movs	r1, #2
 591 0030 5970     		strb	r1, [r3, #1]
 320:.\bsw\rte/sc_breaklight.h ****    if (TRUE == signal->pSigCfg->resourceActive) ReleaseResource(signal->pSigCfg->resource);
 321:.\bsw\rte/sc_breaklight.h **** 
 322:.\bsw\rte/sc_breaklight.h ****    //Pointer to the Taskarray, containing the tasks receiving the onUpdate events
 323:.\bsw\rte/sc_breaklight.h ****    TaskTypeArray* pTaskArray = signal->pSigCfg->onUpdateTasks;
 592              		.loc 5 323 0
 593 0032 5569     		ldr	r5, [r2, #20]
 594              	.LVL78:
 324:.\bsw\rte/sc_breaklight.h **** 
 325:.\bsw\rte/sc_breaklight.h ****    if (0 != signal->pSigCfg->evOnUpdate && NULL != pTaskArray){
 595              		.loc 5 325 0
 596 0034 9368     		ldr	r3, [r2, #8]
 597 0036 73B1     		cbz	r3, .L45
 598 0038 3DB9     		cbnz	r5, .L49
 599 003a 0CE0     		b	.L45
 600              	.LVL79:
 601              	.L47:
 602              	.LBB89:
ARM GAS  C:\Users\vboxuser\AppData\Local\Temp\cccqcqvJ.s 			page 40


 326:.\bsw\rte/sc_breaklight.h ****       for( taskNum=0 ; taskNum < signal->pSigCfg->onUpdateTaskCount ;taskNum++){
 327:.\bsw\rte/sc_breaklight.h **** 		  
 328:.\bsw\rte/sc_breaklight.h ****           TaskType task = (*pTaskArray)[taskNum];
 329:.\bsw\rte/sc_breaklight.h **** 	      SetEvent( task, signal->pSigCfg->evOnUpdate);
 603              		.loc 5 329 0
 604 003c 9968     		ldr	r1, [r3, #8]
 605 003e 55F82400 		ldr	r0, [r5, r4, lsl #2]
 606 0042 FFF7FEFF 		bl	EE_oo_SetEvent
 607              	.LVL80:
 608              	.LBE89:
 326:.\bsw\rte/sc_breaklight.h ****       for( taskNum=0 ; taskNum < signal->pSigCfg->onUpdateTaskCount ;taskNum++){
 609              		.loc 5 326 0
 610 0046 0134     		adds	r4, r4, #1
 611              	.LVL81:
 612 0048 00E0     		b	.L46
 613              	.LVL82:
 614              	.L49:
 325:.\bsw\rte/sc_breaklight.h ****       for( taskNum=0 ; taskNum < signal->pSigCfg->onUpdateTaskCount ;taskNum++){
 615              		.loc 5 325 0
 616 004a 0024     		movs	r4, #0
 617              	.LVL83:
 618              	.L46:
 326:.\bsw\rte/sc_breaklight.h ****       for( taskNum=0 ; taskNum < signal->pSigCfg->onUpdateTaskCount ;taskNum++){
 619              		.loc 5 326 0
 620 004c 094B     		ldr	r3, .L52+4
 621 004e 9B68     		ldr	r3, [r3, #8]
 622 0050 1A69     		ldr	r2, [r3, #16]
 623 0052 9442     		cmp	r4, r2
 624 0054 F2D3     		bcc	.L47
 625              	.LVL84:
 626              	.L45:
 627              	.LBE88:
 628              	.LBE87:
 183:asw/swc_gaspedal.c ****         }
 184:asw/swc_gaspedal.c ****         else{
 185:asw/swc_gaspedal.c ****             brakeLight.breakLightStatus = FALSE;
 186:asw/swc_gaspedal.c ****         }
 187:asw/swc_gaspedal.c ****         
 188:asw/swc_gaspedal.c ****         RTE_SC_BREAKLIGHT_set(&SO_BREAKLIGHT_signal, brakeLight);
 189:asw/swc_gaspedal.c ****         
 190:asw/swc_gaspedal.c ****         WD_Alive(WD_RUN_SETBRAKELIGHT); 
 629              		.loc 1 190 0
 630 0056 0320     		movs	r0, #3
 631 0058 FFF7FEFF 		bl	WD_Alive
 632              	.LVL85:
 633              	.LBB90:
 634              	.LBB91:
 330:.\bsw\rte/sc_breaklight.h ****       }
 331:.\bsw\rte/sc_breaklight.h ****    }
 332:.\bsw\rte/sc_breaklight.h **** 
 333:.\bsw\rte/sc_breaklight.h ****    return ret;
 334:.\bsw\rte/sc_breaklight.h **** }                                                                                                  
 335:.\bsw\rte/sc_breaklight.h ****                                                                                                    
 336:.\bsw\rte/sc_breaklight.h ****                                                                                                    
 337:.\bsw\rte/sc_breaklight.h **** /**************************************************************************************************
 338:.\bsw\rte/sc_breaklight.h **** /* Call functions to the connected drivers																			*/
 339:.\bsw\rte/sc_breaklight.h **** /**************************************************************************************************
ARM GAS  C:\Users\vboxuser\AppData\Local\Temp\cccqcqvJ.s 			page 41


 340:.\bsw\rte/sc_breaklight.h **** 
 341:.\bsw\rte/sc_breaklight.h ****                                                                                                    
 342:.\bsw\rte/sc_breaklight.h **** /**
 343:.\bsw\rte/sc_breaklight.h ****  *  Calls the connected driver interface to get a new value.
 344:.\bsw\rte/sc_breaklight.h ****  *
 345:.\bsw\rte/sc_breaklight.h ****  * @param SC_BREAKLIGHT_t * const signal: Pointer to the signal object
 346:.\bsw\rte/sc_breaklight.h ****  * @return  RC_t: Return value of the driver call
 347:.\bsw\rte/sc_breaklight.h ****  *
 348:.\bsw\rte/sc_breaklight.h ****  */
 349:.\bsw\rte/sc_breaklight.h **** inline RC_t RTE_SC_BREAKLIGHT_pullPort( SC_BREAKLIGHT_t * const signal )
 350:.\bsw\rte/sc_breaklight.h **** {                                                                                                  
 351:.\bsw\rte/sc_breaklight.h ****    RC_t ret = RC_SUCCESS;
 352:.\bsw\rte/sc_breaklight.h **** 
 353:.\bsw\rte/sc_breaklight.h ****                                                                                                    
 354:.\bsw\rte/sc_breaklight.h ****    if ( NULL != signal->pSigCfg->inDriver )
 355:.\bsw\rte/sc_breaklight.h ****    {
 356:.\bsw\rte/sc_breaklight.h **** 	  SC_BREAKLIGHT_data_t value = signal->value;
 357:.\bsw\rte/sc_breaklight.h ****       ret = signal->pSigCfg->inDriver(&value);
 358:.\bsw\rte/sc_breaklight.h ****                                                                                                    
 359:.\bsw\rte/sc_breaklight.h ****       if ( ret == RC_SUCCESS )                                                                     
 360:.\bsw\rte/sc_breaklight.h ****       {
 361:.\bsw\rte/sc_breaklight.h ****     	  //Critical Section
 362:.\bsw\rte/sc_breaklight.h ****     	  RTE_SC_BREAKLIGHT_set(signal, value);
 363:.\bsw\rte/sc_breaklight.h ****       }
 364:.\bsw\rte/sc_breaklight.h ****       else
 365:.\bsw\rte/sc_breaklight.h ****       {
 366:.\bsw\rte/sc_breaklight.h **** 		  //Signal is invalid. Error event (if present) will be fired
 367:.\bsw\rte/sc_breaklight.h **** 		  RTE_SC_BREAKLIGHT_setStatus(signal, RTE_SIGNALSTATUS_INVALID);
 368:.\bsw\rte/sc_breaklight.h ****       }
 369:.\bsw\rte/sc_breaklight.h **** 
 370:.\bsw\rte/sc_breaklight.h ****    }                                                                                               
 371:.\bsw\rte/sc_breaklight.h ****                                                                                                    
 372:.\bsw\rte/sc_breaklight.h ****    return ret;                                                                                     
 373:.\bsw\rte/sc_breaklight.h **** }                                                                                                  
 374:.\bsw\rte/sc_breaklight.h ****                                                                                                    
 375:.\bsw\rte/sc_breaklight.h **** /**
 376:.\bsw\rte/sc_breaklight.h ****  *  Calls the connected driver interfaces to send a value. Value will not be sent if it is INVALID.
 377:.\bsw\rte/sc_breaklight.h ****  *
 378:.\bsw\rte/sc_breaklight.h ****  * @param SC_BREAKLIGHT_t * const signal: Pointer to the signal object
 379:.\bsw\rte/sc_breaklight.h ****  * @return  RC_t: Return value of the driver call
 380:.\bsw\rte/sc_breaklight.h ****  *
 381:.\bsw\rte/sc_breaklight.h ****  **/
 382:.\bsw\rte/sc_breaklight.h **** inline RC_t RTE_SC_BREAKLIGHT_pushPort( const SC_BREAKLIGHT_t * const signal )
 383:.\bsw\rte/sc_breaklight.h **** {                                                                                                  
 384:.\bsw\rte/sc_breaklight.h ****    RC_t ret = RC_ERROR;
 385:.\bsw\rte/sc_breaklight.h **** 
 386:.\bsw\rte/sc_breaklight.h ****    if (RTE_SIGNALSTATUS_VALID == signal->status)
 635              		.loc 5 386 0
 636 005c 054B     		ldr	r3, .L52+4
 637 005e 5B78     		ldrb	r3, [r3, #1]	@ zero_extendqisi2
 638 0060 022B     		cmp	r3, #2
 639 0062 03D1     		bne	.L41
 387:.\bsw\rte/sc_breaklight.h ****    {
 388:.\bsw\rte/sc_breaklight.h **** 	   ret = signal->pSigCfg->outDriver(&(signal->value));
 640              		.loc 5 388 0
 641 0064 0348     		ldr	r0, .L52+4
 642 0066 8368     		ldr	r3, [r0, #8]
ARM GAS  C:\Users\vboxuser\AppData\Local\Temp\cccqcqvJ.s 			page 42


 643 0068 5B68     		ldr	r3, [r3, #4]
 644 006a 9847     		blx	r3
 645              	.LVL86:
 646              	.L41:
 647 006c 38BD     		pop	{r3, r4, r5, pc}
 648              	.LVL87:
 649              	.L51:
 650              		.cfi_def_cfa_offset 0
 651              		.cfi_restore 3
 652              		.cfi_restore 4
 653              		.cfi_restore 5
 654              		.cfi_restore 14
 655 006e 7047     		bx	lr
 656              	.L53:
 657              		.align	2
 658              	.L52:
 659 0070 00000000 		.word	SO_SPEED_signal
 660 0074 00000000 		.word	SO_BREAKLIGHT_signal
 661              	.LBE91:
 662              	.LBE90:
 663              	.LBE84:
 664              		.cfi_endproc
 665              	.LFE183:
 666              		.size	GASPEDAL_setBrakeLight_run, .-GASPEDAL_setBrakeLight_run
 667              		.section	.text.GASPEDAL_HMI_run,"ax",%progbits
 668              		.align	2
 669              		.global	GASPEDAL_HMI_run
 670              		.thumb
 671              		.thumb_func
 672              		.type	GASPEDAL_HMI_run, %function
 673              	GASPEDAL_HMI_run:
 674              	.LFB184:
 191:asw/swc_gaspedal.c ****         if (RTE_SC_BREAKLIGHT_pushPort(&SO_BREAKLIGHT_signal) != RC_SUCCESS){
 192:asw/swc_gaspedal.c ****             // Further error handling
 193:asw/swc_gaspedal.c ****         }
 194:asw/swc_gaspedal.c ****     }
 195:asw/swc_gaspedal.c ****     
 196:asw/swc_gaspedal.c ****     /* USER CODE END GASPEDAL_setBrakeLight_run */
 197:asw/swc_gaspedal.c **** }
 198:asw/swc_gaspedal.c **** 
 199:asw/swc_gaspedal.c **** /*
 200:asw/swc_gaspedal.c ****  * component: swc_GasPedal
 201:asw/swc_gaspedal.c ****  * cycletime: 0
 202:asw/swc_gaspedal.c ****  * description: Output touch screen runnable
 203:asw/swc_gaspedal.c ****  * events: ev_screen_onData
 204:asw/swc_gaspedal.c ****  * name: GASPEDAL_HMI_run
 205:asw/swc_gaspedal.c ****  * shortname: HMI
 206:asw/swc_gaspedal.c ****  * signalIN: so_screen
 207:asw/swc_gaspedal.c ****  * signalOUT: 
 208:asw/swc_gaspedal.c ****  * task: tsk_tft
 209:asw/swc_gaspedal.c ****  */
 210:asw/swc_gaspedal.c **** void GASPEDAL_HMI_run(RTE_event ev){
 675              		.loc 1 210 0
 676              		.cfi_startproc
 677              		@ args = 0, pretend = 0, frame = 0
 678              		@ frame_needed = 0, uses_anonymous_args = 0
 679              	.LVL88:
ARM GAS  C:\Users\vboxuser\AppData\Local\Temp\cccqcqvJ.s 			page 43


 680 0000 08B5     		push	{r3, lr}
 681              		.cfi_def_cfa_offset 8
 682              		.cfi_offset 3, -8
 683              		.cfi_offset 14, -4
 211:asw/swc_gaspedal.c **** 	
 212:asw/swc_gaspedal.c **** 	/* USER CODE START GASPEDAL_HMI_run */
 213:asw/swc_gaspedal.c ****     if (ev_screen_onData & ev)
 214:asw/swc_gaspedal.c ****     {
 215:asw/swc_gaspedal.c ****         // To do list
 216:asw/swc_gaspedal.c ****     }
 217:asw/swc_gaspedal.c ****     WD_Alive(WD_RUN_HMI); 
 684              		.loc 1 217 0
 685 0002 0420     		movs	r0, #4
 686              	.LVL89:
 687 0004 FFF7FEFF 		bl	WD_Alive
 688              	.LVL90:
 689 0008 08BD     		pop	{r3, pc}
 690              		.cfi_endproc
 691              	.LFE184:
 692              		.size	GASPEDAL_HMI_run, .-GASPEDAL_HMI_run
 693 000a 00BF     		.text
 694              	.Letext0:
 695              		.file 6 "c:\\program files (x86)\\cypress\\psoc creator\\4.4\\psoc creator\\import\\gnu\\arm\\5.4.
 696              		.file 7 "c:\\program files (x86)\\cypress\\psoc creator\\4.4\\psoc creator\\import\\gnu\\arm\\5.4.
 697              		.file 8 "c:\\program files (x86)\\cypress\\psoc creator\\4.4\\psoc creator\\import\\gnu\\arm\\5.4.
 698              		.file 9 "Generated_Source\\PSoC5/ErikaOS_1_common_ee_types.inc"
 699              		.file 10 "Generated_Source\\PSoC5/ErikaOS_1_cortex_mx_ee_cpu.inc"
 700              		.file 11 "Generated_Source\\PSoC5/ErikaOS_1_ee_oo_common.inc"
 701              		.file 12 ".\\bsw/global.h"
 702              		.file 13 ".\\bsw\\rte/rte_types.h"
 703              		.file 14 ".\\bsw\\rte/rte.h"
 704              		.file 15 ".\\bsw\\rte/sc_joystick_type.h"
 705              		.file 16 ".\\bsw\\rte/sc_speed_type.h"
 706              		.file 17 ".\\bsw\\rte/sc_engine_type.h"
 707              		.file 18 ".\\bsw\\rte/sc_breaklight_type.h"
 708              		.file 19 "Generated_Source\\PSoC5/ErikaOS_1_ee_oo_intfunc.inc"
 709              		.file 20 "Generated_Source\\PSoC5/ErikaOS_1_cortex_mx_ee_context.inc"
 710              		.file 21 "Generated_Source\\PSoC5/ErikaOS_1_common_ee_primitives.inc"
 711              		.file 22 "Generated_Source\\PSoC5/core_cm3.h"
 712              		.file 23 ".\\bsw\\rte/sp_common.h"
 713              		.file 24 "Generated_Source\\PSoC5/ErikaOS_1_ee_oo_kernel.inc"
 714              		.file 25 ".\\bsw\\LabBoard/watchdog.h"