ARM GAS  C:\Users\vboxuser\AppData\Local\Temp\ccbuJY4H.s 			page 1


   1              		.syntax unified
   2              		.cpu cortex-m3
   3              		.fpu softvfp
   4              		.eabi_attribute 20, 1
   5              		.eabi_attribute 21, 1
   6              		.eabi_attribute 23, 3
   7              		.eabi_attribute 24, 1
   8              		.eabi_attribute 25, 1
   9              		.eabi_attribute 26, 1
  10              		.eabi_attribute 30, 1
  11              		.eabi_attribute 34, 1
  12              		.eabi_attribute 18, 4
  13              		.thumb
  14              		.syntax unified
  15              		.file	"seven.c"
  16              		.text
  17              	.Ltext0:
  18              		.cfi_sections	.debug_frame
  19              		.section	.text.SEVEN_Set,"ax",%progbits
  20              		.align	2
  21              		.global	SEVEN_Set
  22              		.thumb
  23              		.thumb_func
  24              		.type	SEVEN_Set, %function
  25              	SEVEN_Set:
  26              	.LFB111:
  27              		.file 1 "bsw\\LabBoard\\seven.c"
   1:bsw\LabBoard/seven.c **** /**
   2:bsw\LabBoard/seven.c **** * \file seven.c
   3:bsw\LabBoard/seven.c **** * \author P. Fromm
   4:bsw\LabBoard/seven.c **** * \date 28.8.17
   5:bsw\LabBoard/seven.c **** *
   6:bsw\LabBoard/seven.c **** * \brief Driver for 7 segment displays
   7:bsw\LabBoard/seven.c **** *
   8:bsw\LabBoard/seven.c **** * \copyright Copyright ©2016
   9:bsw\LabBoard/seven.c **** * Department of electrical engineering and information technology, Hochschule Darmstadt - Universit
  10:bsw\LabBoard/seven.c **** * Permission to use, copy, modify, and distribute this software and its documentation for education
  11:bsw\LabBoard/seven.c **** * (unless permitted by h_da) and official h_da projects, is hereby granted for enrolled students of
  12:bsw\LabBoard/seven.c **** * this paragraph and the following paragraph appear in all copies, modifications, and distributions
  13:bsw\LabBoard/seven.c **** * Contact Prof.Dr.-Ing. Peter Fromm, peter.fromm@h-da.de, Birkenweg 8 64295 Darmstadt - GERMANY for
  14:bsw\LabBoard/seven.c **** *
  15:bsw\LabBoard/seven.c **** * \warning This software is a PROTOTYPE version and is not designed or intended for use in producti
  16:bsw\LabBoard/seven.c **** * The user represents and warrants that it will NOT use or redistribute the Software for such purpo
  17:bsw\LabBoard/seven.c **** * This prototype is for research purposes only. This software is provided "AS IS," without a warran
  18:bsw\LabBoard/seven.c **** */
  19:bsw\LabBoard/seven.c **** 
  20:bsw\LabBoard/seven.c **** /*****************************************************************************/
  21:bsw\LabBoard/seven.c **** /* Include files                                                             */
  22:bsw\LabBoard/seven.c **** /*****************************************************************************/
  23:bsw\LabBoard/seven.c **** #include "project.h"
  24:bsw\LabBoard/seven.c **** #include "seven.h"
  25:bsw\LabBoard/seven.c **** 
  26:bsw\LabBoard/seven.c **** 
  27:bsw\LabBoard/seven.c **** 
  28:bsw\LabBoard/seven.c **** 
  29:bsw\LabBoard/seven.c **** /*****************************************************************************/
  30:bsw\LabBoard/seven.c **** /* Local pre-processor symbols/macros ('#define')                            */
ARM GAS  C:\Users\vboxuser\AppData\Local\Temp\ccbuJY4H.s 			page 2


  31:bsw\LabBoard/seven.c **** /*****************************************************************************/
  32:bsw\LabBoard/seven.c **** 
  33:bsw\LabBoard/seven.c **** #define SEVEN__A  0b10000000
  34:bsw\LabBoard/seven.c **** #define SEVEN__B  0b01000000
  35:bsw\LabBoard/seven.c **** #define SEVEN__C  0b00100000
  36:bsw\LabBoard/seven.c **** #define SEVEN__D  0b00010000
  37:bsw\LabBoard/seven.c **** #define SEVEN__E  0b00001000
  38:bsw\LabBoard/seven.c **** #define SEVEN__F  0b00000100
  39:bsw\LabBoard/seven.c **** #define SEVEN__G  0b00000010
  40:bsw\LabBoard/seven.c **** #define SEVEN__DP 0b00000001
  41:bsw\LabBoard/seven.c **** 
  42:bsw\LabBoard/seven.c **** 
  43:bsw\LabBoard/seven.c **** /*****************************************************************************/
  44:bsw\LabBoard/seven.c **** /* Global variable definitions (declared in header file with 'extern')       */
  45:bsw\LabBoard/seven.c **** /*****************************************************************************/
  46:bsw\LabBoard/seven.c **** 
  47:bsw\LabBoard/seven.c **** /*****************************************************************************/
  48:bsw\LabBoard/seven.c **** /* Local type definitions ('typedef')                                        */
  49:bsw\LabBoard/seven.c **** /*****************************************************************************/
  50:bsw\LabBoard/seven.c **** 
  51:bsw\LabBoard/seven.c **** /*****************************************************************************/
  52:bsw\LabBoard/seven.c **** /* Local variable definitions ('static')                                     */
  53:bsw\LabBoard/seven.c **** /*****************************************************************************/
  54:bsw\LabBoard/seven.c **** 
  55:bsw\LabBoard/seven.c **** //    ABCDEFG
  56:bsw\LabBoard/seven.c **** const static uint8_t SEVEN__BitPattern[] = 
  57:bsw\LabBoard/seven.c **** {
  58:bsw\LabBoard/seven.c ****     0b11111100,     //0
  59:bsw\LabBoard/seven.c ****     0b01100000,     //1
  60:bsw\LabBoard/seven.c ****     0b11011010,     //2
  61:bsw\LabBoard/seven.c ****     0b11110010,     //3
  62:bsw\LabBoard/seven.c ****     0b01100110,     //4
  63:bsw\LabBoard/seven.c ****     0b10110110,     //5
  64:bsw\LabBoard/seven.c ****     0b10111110,     //6
  65:bsw\LabBoard/seven.c ****     0b11100000,     //7
  66:bsw\LabBoard/seven.c ****     0b11111110,     //8
  67:bsw\LabBoard/seven.c ****     0b11110110,     //9
  68:bsw\LabBoard/seven.c ****     0b11101110,     //a
  69:bsw\LabBoard/seven.c ****     0b00111110,     //b
  70:bsw\LabBoard/seven.c ****     0b10011100,     //c
  71:bsw\LabBoard/seven.c ****     0b01111010,     //d
  72:bsw\LabBoard/seven.c ****     0b10011110,     //e
  73:bsw\LabBoard/seven.c ****     0b10001110,     //f
  74:bsw\LabBoard/seven.c ****     0b00000001      //decimal point
  75:bsw\LabBoard/seven.c **** };
  76:bsw\LabBoard/seven.c ****     
  77:bsw\LabBoard/seven.c **** //We need to store the last latch value per display
  78:bsw\LabBoard/seven.c **** //-1 means empty
  79:bsw\LabBoard/seven.c **** static sint8_t SEVEN__latch_value[2] = {-1,-1};
  80:bsw\LabBoard/seven.c **** static uint8_t SEVEN__latch_pattern[2] = {0,0};
  81:bsw\LabBoard/seven.c **** 
  82:bsw\LabBoard/seven.c **** /*****************************************************************************/
  83:bsw\LabBoard/seven.c **** /* Local function prototypes ('static')                                      */
  84:bsw\LabBoard/seven.c **** /*****************************************************************************/
  85:bsw\LabBoard/seven.c **** 
  86:bsw\LabBoard/seven.c **** 
  87:bsw\LabBoard/seven.c **** /*****************************************************************************/
ARM GAS  C:\Users\vboxuser\AppData\Local\Temp\ccbuJY4H.s 			page 3


  88:bsw\LabBoard/seven.c **** /* Function implementation - global ('extern') and local ('static')          */
  89:bsw\LabBoard/seven.c **** /*****************************************************************************/
  90:bsw\LabBoard/seven.c **** 
  91:bsw\LabBoard/seven.c **** 
  92:bsw\LabBoard/seven.c **** 
  93:bsw\LabBoard/seven.c **** /**
  94:bsw\LabBoard/seven.c ****  * Initilasation of the seven segment display
  95:bsw\LabBoard/seven.c ****  * @return RC_SUCCESS if function was executed correctly, other value in case of error
  96:bsw\LabBoard/seven.c ****  */
  97:bsw\LabBoard/seven.c **** RC_t SEVEN_Init()
  98:bsw\LabBoard/seven.c **** {
  99:bsw\LabBoard/seven.c ****     
 100:bsw\LabBoard/seven.c ****     SEVEN_Clear(SEVEN_0);
 101:bsw\LabBoard/seven.c ****     SEVEN_Clear(SEVEN_1);
 102:bsw\LabBoard/seven.c ****     
 103:bsw\LabBoard/seven.c ****     return RC_SUCCESS;
 104:bsw\LabBoard/seven.c **** }
 105:bsw\LabBoard/seven.c **** 
 106:bsw\LabBoard/seven.c **** 
 107:bsw\LabBoard/seven.c **** /**
 108:bsw\LabBoard/seven.c ****  * Sets value for one display
 109:bsw\LabBoard/seven.c ****  * @param SEVEN_id_t sevenId - identifier for the segment to be set
 110:bsw\LabBoard/seven.c ****  * @param uint8_t value - value to be set, valid range 0...15
 111:bsw\LabBoard/seven.c ****  * @return RC_SUCCESS if function was executed correctly, other value in case of error
 112:bsw\LabBoard/seven.c ****  */
 113:bsw\LabBoard/seven.c **** RC_t SEVEN_Set(SEVEN_id_t sevenId, uint8_t value)
 114:bsw\LabBoard/seven.c **** {
  28              		.loc 1 114 0
  29              		.cfi_startproc
  30              		@ args = 0, pretend = 0, frame = 0
  31              		@ frame_needed = 0, uses_anonymous_args = 0
  32              	.LVL0:
 115:bsw\LabBoard/seven.c ****     if (value > 0x0F)
  33              		.loc 1 115 0
  34 0000 0F29     		cmp	r1, #15
  35 0002 0ED8     		bhi	.L3
 114:bsw\LabBoard/seven.c ****     if (value > 0x0F)
  36              		.loc 1 114 0
  37 0004 38B5     		push	{r3, r4, r5, lr}
  38              		.cfi_def_cfa_offset 16
  39              		.cfi_offset 3, -16
  40              		.cfi_offset 4, -12
  41              		.cfi_offset 5, -8
  42              		.cfi_offset 14, -4
  43 0006 0C46     		mov	r4, r1
  44 0008 0546     		mov	r5, r0
 116:bsw\LabBoard/seven.c ****     {
 117:bsw\LabBoard/seven.c ****         return RC_ERROR_BAD_PARAM;
 118:bsw\LabBoard/seven.c ****     }
 119:bsw\LabBoard/seven.c ****     
 120:bsw\LabBoard/seven.c ****     //Set the selection bit for the display
 121:bsw\LabBoard/seven.c ****     SEVEN_SELECT_Write((uint8_t)sevenId);
  45              		.loc 1 121 0
  46 000a FFF7FEFF 		bl	SEVEN_SELECT_Write
  47              	.LVL1:
 122:bsw\LabBoard/seven.c ****     
 123:bsw\LabBoard/seven.c ****     //Set the bitpattern
ARM GAS  C:\Users\vboxuser\AppData\Local\Temp\ccbuJY4H.s 			page 4


 124:bsw\LabBoard/seven.c ****     //As we do not have a single port, we have to do it bit by bit
 125:bsw\LabBoard/seven.c ****     
 126:bsw\LabBoard/seven.c ****     uint8_t pattern = SEVEN__BitPattern[value];
  48              		.loc 1 126 0
  49 000e 064B     		ldr	r3, .L6
  50 0010 185D     		ldrb	r0, [r3, r4]	@ zero_extendqisi2
  51              	.LVL2:
 127:bsw\LabBoard/seven.c ****     
 128:bsw\LabBoard/seven.c ****     //Store the current pattern in the software latch (needed for the DP function)
 129:bsw\LabBoard/seven.c ****     SEVEN__latch_value[(uint8_t)sevenId] = value;
  52              		.loc 1 129 0
  53 0012 064B     		ldr	r3, .L6+4
  54 0014 5C55     		strb	r4, [r3, r5]
 130:bsw\LabBoard/seven.c ****     SEVEN__latch_pattern[(uint8_t)sevenId] = pattern;
  55              		.loc 1 130 0
  56 0016 064B     		ldr	r3, .L6+8
  57 0018 5855     		strb	r0, [r3, r5]
 131:bsw\LabBoard/seven.c ****     
 132:bsw\LabBoard/seven.c ****     SEVEN_reg_Write(pattern);
  58              		.loc 1 132 0
  59 001a FFF7FEFF 		bl	SEVEN_reg_Write
  60              	.LVL3:
 133:bsw\LabBoard/seven.c ****     return RC_SUCCESS;
  61              		.loc 1 133 0
  62 001e 0020     		movs	r0, #0
  63 0020 38BD     		pop	{r3, r4, r5, pc}
  64              	.LVL4:
  65              	.L3:
  66              		.cfi_def_cfa_offset 0
  67              		.cfi_restore 3
  68              		.cfi_restore 4
  69              		.cfi_restore 5
  70              		.cfi_restore 14
 117:bsw\LabBoard/seven.c ****     }
  71              		.loc 1 117 0
  72 0022 6FF01300 		mvn	r0, #19
  73              	.LVL5:
  74 0026 7047     		bx	lr
  75              	.L7:
  76              		.align	2
  77              	.L6:
  78 0028 00000000 		.word	.LANCHOR0
  79 002c 00000000 		.word	.LANCHOR1
  80 0030 00000000 		.word	.LANCHOR2
  81              		.cfi_endproc
  82              	.LFE111:
  83              		.size	SEVEN_Set, .-SEVEN_Set
  84              		.section	.text.SEVEN_Get,"ax",%progbits
  85              		.align	2
  86              		.global	SEVEN_Get
  87              		.thumb
  88              		.thumb_func
  89              		.type	SEVEN_Get, %function
  90              	SEVEN_Get:
  91              	.LFB112:
 134:bsw\LabBoard/seven.c ****     
 135:bsw\LabBoard/seven.c **** }
ARM GAS  C:\Users\vboxuser\AppData\Local\Temp\ccbuJY4H.s 			page 5


 136:bsw\LabBoard/seven.c **** 
 137:bsw\LabBoard/seven.c **** /**
 138:bsw\LabBoard/seven.c ****  * Get value for one display
 139:bsw\LabBoard/seven.c ****  * @param SEVEN_id_t sevenId - identifier for the segment to be set
 140:bsw\LabBoard/seven.c ****  * @param uint8_t value - current value, valid range 0...15
 141:bsw\LabBoard/seven.c ****  * @return RC_SUCCESS if function was executed correctly, other value in case of error
 142:bsw\LabBoard/seven.c ****  */
 143:bsw\LabBoard/seven.c **** RC_t SEVEN_Get(SEVEN_id_t sevenId, sint8_t* value)
 144:bsw\LabBoard/seven.c **** {
  92              		.loc 1 144 0
  93              		.cfi_startproc
  94              		@ args = 0, pretend = 0, frame = 0
  95              		@ frame_needed = 0, uses_anonymous_args = 0
  96              		@ link register save eliminated.
  97              	.LVL6:
 145:bsw\LabBoard/seven.c ****     *value = SEVEN__latch_value[(uint8_t)sevenId];
  98              		.loc 1 145 0
  99 0000 024B     		ldr	r3, .L9
 100 0002 1B56     		ldrsb	r3, [r3, r0]
 101 0004 0B70     		strb	r3, [r1]
 146:bsw\LabBoard/seven.c ****     return RC_SUCCESS;
 147:bsw\LabBoard/seven.c **** }
 102              		.loc 1 147 0
 103 0006 0020     		movs	r0, #0
 104              	.LVL7:
 105 0008 7047     		bx	lr
 106              	.L10:
 107 000a 00BF     		.align	2
 108              	.L9:
 109 000c 00000000 		.word	.LANCHOR1
 110              		.cfi_endproc
 111              	.LFE112:
 112              		.size	SEVEN_Get, .-SEVEN_Get
 113              		.section	.text.SEVEN_SetHex,"ax",%progbits
 114              		.align	2
 115              		.global	SEVEN_SetHex
 116              		.thumb
 117              		.thumb_func
 118              		.type	SEVEN_SetHex, %function
 119              	SEVEN_SetHex:
 120              	.LFB113:
 148:bsw\LabBoard/seven.c **** 
 149:bsw\LabBoard/seven.c **** 
 150:bsw\LabBoard/seven.c **** /**
 151:bsw\LabBoard/seven.c ****  * Sets both displays
 152:bsw\LabBoard/seven.c ****  * @param uint8_t value - value to be set, valid range 0...255
 153:bsw\LabBoard/seven.c ****  * @return RC_SUCCESS if function was executed correctly, other value in case of error
 154:bsw\LabBoard/seven.c ****  */
 155:bsw\LabBoard/seven.c **** RC_t SEVEN_SetHex(uint8_t value)
 156:bsw\LabBoard/seven.c **** {
 121              		.loc 1 156 0
 122              		.cfi_startproc
 123              		@ args = 0, pretend = 0, frame = 0
 124              		@ frame_needed = 0, uses_anonymous_args = 0
 125              	.LVL8:
 126 0000 10B5     		push	{r4, lr}
 127              		.cfi_def_cfa_offset 8
ARM GAS  C:\Users\vboxuser\AppData\Local\Temp\ccbuJY4H.s 			page 6


 128              		.cfi_offset 4, -8
 129              		.cfi_offset 14, -4
 130 0002 0446     		mov	r4, r0
 157:bsw\LabBoard/seven.c ****     SEVEN_Set(SEVEN_1, value / 16);
 131              		.loc 1 157 0
 132 0004 0109     		lsrs	r1, r0, #4
 133 0006 0120     		movs	r0, #1
 134              	.LVL9:
 135 0008 FFF7FEFF 		bl	SEVEN_Set
 136              	.LVL10:
 158:bsw\LabBoard/seven.c ****     SEVEN_Set(SEVEN_0, value % 16);
 137              		.loc 1 158 0
 138 000c 04F00F01 		and	r1, r4, #15
 139 0010 0020     		movs	r0, #0
 140 0012 FFF7FEFF 		bl	SEVEN_Set
 141              	.LVL11:
 159:bsw\LabBoard/seven.c ****     
 160:bsw\LabBoard/seven.c ****     return RC_SUCCESS;
 161:bsw\LabBoard/seven.c **** }
 142              		.loc 1 161 0
 143 0016 0020     		movs	r0, #0
 144 0018 10BD     		pop	{r4, pc}
 145              		.cfi_endproc
 146              	.LFE113:
 147              		.size	SEVEN_SetHex, .-SEVEN_SetHex
 148 001a 00BF     		.section	.text.SEVEN_SetDP,"ax",%progbits
 149              		.align	2
 150              		.global	SEVEN_SetDP
 151              		.thumb
 152              		.thumb_func
 153              		.type	SEVEN_SetDP, %function
 154              	SEVEN_SetDP:
 155              	.LFB114:
 162:bsw\LabBoard/seven.c **** 
 163:bsw\LabBoard/seven.c **** /**
 164:bsw\LabBoard/seven.c ****  * Sets decimal point for one display
 165:bsw\LabBoard/seven.c ****  * @param SEVEN_id_t sevenId - identifier for the segment to be set
 166:bsw\LabBoard/seven.c ****  * @param uint8_t value - value to be set, valid range 0 (OFF)...1(ON)
 167:bsw\LabBoard/seven.c ****  * @return RC_SUCCESS if function was executed correctly, other value in case of error
 168:bsw\LabBoard/seven.c ****  */
 169:bsw\LabBoard/seven.c **** RC_t SEVEN_SetDP(SEVEN_id_t sevenId, uint8_t value)
 170:bsw\LabBoard/seven.c **** {
 156              		.loc 1 170 0
 157              		.cfi_startproc
 158              		@ args = 0, pretend = 0, frame = 0
 159              		@ frame_needed = 0, uses_anonymous_args = 0
 160              	.LVL12:
 171:bsw\LabBoard/seven.c ****     
 172:bsw\LabBoard/seven.c ****     if (value > 1)
 161              		.loc 1 172 0
 162 0000 0129     		cmp	r1, #1
 163 0002 15D8     		bhi	.L17
 170:bsw\LabBoard/seven.c ****     
 164              		.loc 1 170 0
 165 0004 38B5     		push	{r3, r4, r5, lr}
 166              		.cfi_def_cfa_offset 16
 167              		.cfi_offset 3, -16
ARM GAS  C:\Users\vboxuser\AppData\Local\Temp\ccbuJY4H.s 			page 7


 168              		.cfi_offset 4, -12
 169              		.cfi_offset 5, -8
 170              		.cfi_offset 14, -4
 171              	.LVL13:
 173:bsw\LabBoard/seven.c ****     {
 174:bsw\LabBoard/seven.c ****         return RC_ERROR_BAD_PARAM;
 175:bsw\LabBoard/seven.c ****     }
 176:bsw\LabBoard/seven.c ****     
 177:bsw\LabBoard/seven.c ****     //Restore the last display pattern
 178:bsw\LabBoard/seven.c ****     uint8_t pattern = 0;
 179:bsw\LabBoard/seven.c ****     if (SEVEN__latch_value[(uint8_t)sevenId] != -1)
 172              		.loc 1 179 0
 173 0006 0C4B     		ldr	r3, .L21
 174 0008 1B56     		ldrsb	r3, [r3, r0]
 175 000a B3F1FF3F 		cmp	r3, #-1
 176 000e 02D0     		beq	.L18
 180:bsw\LabBoard/seven.c ****     {
 181:bsw\LabBoard/seven.c ****         pattern = SEVEN__latch_pattern[(uint8_t)sevenId];
 177              		.loc 1 181 0
 178 0010 0A4B     		ldr	r3, .L21+4
 179 0012 1D5C     		ldrb	r5, [r3, r0]	@ zero_extendqisi2
 180              	.LVL14:
 181 0014 00E0     		b	.L15
 182              	.LVL15:
 183              	.L18:
 178:bsw\LabBoard/seven.c ****     if (SEVEN__latch_value[(uint8_t)sevenId] != -1)
 184              		.loc 1 178 0
 185 0016 0025     		movs	r5, #0
 186              	.LVL16:
 187              	.L15:
 188 0018 0C46     		mov	r4, r1
 189              	.LVL17:
 182:bsw\LabBoard/seven.c ****     }
 183:bsw\LabBoard/seven.c ****     
 184:bsw\LabBoard/seven.c ****     //Set the selection bit for the display
 185:bsw\LabBoard/seven.c ****     SEVEN_SELECT_Write((uint8_t)sevenId);
 190              		.loc 1 185 0
 191 001a FFF7FEFF 		bl	SEVEN_SELECT_Write
 192              	.LVL18:
 186:bsw\LabBoard/seven.c ****     
 187:bsw\LabBoard/seven.c ****     //Set the port to the pattern currently active
 188:bsw\LabBoard/seven.c ****     //SEVEN_reg_Write(pattern);
 189:bsw\LabBoard/seven.c ****     
 190:bsw\LabBoard/seven.c ****     //Set the decimal point
 191:bsw\LabBoard/seven.c ****     //SEVEN_DP_Write(value);
 192:bsw\LabBoard/seven.c ****     
 193:bsw\LabBoard/seven.c ****     
 194:bsw\LabBoard/seven.c ****     uint8_t patternWithorWithoutDP =0;
 195:bsw\LabBoard/seven.c ****     if (value ==1)
 193              		.loc 1 195 0
 194 001e 012C     		cmp	r4, #1
 195 0020 01D1     		bne	.L16
 196:bsw\LabBoard/seven.c ****     {
 197:bsw\LabBoard/seven.c ****         patternWithorWithoutDP = SEVEN__BitPattern[16] | pattern;
 196              		.loc 1 197 0
 197 0022 45F00105 		orr	r5, r5, #1
 198              	.LVL19:
ARM GAS  C:\Users\vboxuser\AppData\Local\Temp\ccbuJY4H.s 			page 8


 199              	.L16:
 198:bsw\LabBoard/seven.c ****     }
 199:bsw\LabBoard/seven.c ****     else
 200:bsw\LabBoard/seven.c ****     {
 201:bsw\LabBoard/seven.c ****         patternWithorWithoutDP = pattern;
 202:bsw\LabBoard/seven.c ****     }
 203:bsw\LabBoard/seven.c ****     SEVEN_reg_Write(patternWithorWithoutDP);
 200              		.loc 1 203 0
 201 0026 2846     		mov	r0, r5
 202 0028 FFF7FEFF 		bl	SEVEN_reg_Write
 203              	.LVL20:
 204:bsw\LabBoard/seven.c **** 
 205:bsw\LabBoard/seven.c ****     return RC_SUCCESS;
 204              		.loc 1 205 0
 205 002c 0020     		movs	r0, #0
 206 002e 38BD     		pop	{r3, r4, r5, pc}
 207              	.LVL21:
 208              	.L17:
 209              		.cfi_def_cfa_offset 0
 210              		.cfi_restore 3
 211              		.cfi_restore 4
 212              		.cfi_restore 5
 213              		.cfi_restore 14
 174:bsw\LabBoard/seven.c ****     }
 214              		.loc 1 174 0
 215 0030 6FF01300 		mvn	r0, #19
 216              	.LVL22:
 217 0034 7047     		bx	lr
 218              	.L22:
 219 0036 00BF     		.align	2
 220              	.L21:
 221 0038 00000000 		.word	.LANCHOR1
 222 003c 00000000 		.word	.LANCHOR2
 223              		.cfi_endproc
 224              	.LFE114:
 225              		.size	SEVEN_SetDP, .-SEVEN_SetDP
 226              		.section	.text.SEVEN_Clear,"ax",%progbits
 227              		.align	2
 228              		.global	SEVEN_Clear
 229              		.thumb
 230              		.thumb_func
 231              		.type	SEVEN_Clear, %function
 232              	SEVEN_Clear:
 233              	.LFB115:
 206:bsw\LabBoard/seven.c **** }
 207:bsw\LabBoard/seven.c **** 
 208:bsw\LabBoard/seven.c **** /**
 209:bsw\LabBoard/seven.c ****  * Clears one display
 210:bsw\LabBoard/seven.c ****  * @param SEVEN_id_t sevenId - identifier for the segment to be set
 211:bsw\LabBoard/seven.c ****  * @return RC_SUCCESS if function was executed correctly, other value in case of error
 212:bsw\LabBoard/seven.c ****  */
 213:bsw\LabBoard/seven.c **** RC_t SEVEN_Clear(SEVEN_id_t sevenId)
 214:bsw\LabBoard/seven.c **** {
 234              		.loc 1 214 0
 235              		.cfi_startproc
 236              		@ args = 0, pretend = 0, frame = 0
 237              		@ frame_needed = 0, uses_anonymous_args = 0
ARM GAS  C:\Users\vboxuser\AppData\Local\Temp\ccbuJY4H.s 			page 9


 238              	.LVL23:
 239 0000 08B5     		push	{r3, lr}
 240              		.cfi_def_cfa_offset 8
 241              		.cfi_offset 3, -8
 242              		.cfi_offset 14, -4
 215:bsw\LabBoard/seven.c ****     //Set software latch to cleared
 216:bsw\LabBoard/seven.c ****     SEVEN__latch_value[(uint8_t)sevenId] = -1;
 243              		.loc 1 216 0
 244 0002 FF22     		movs	r2, #255
 245 0004 044B     		ldr	r3, .L25
 246 0006 1A54     		strb	r2, [r3, r0]
 217:bsw\LabBoard/seven.c ****     
 218:bsw\LabBoard/seven.c ****     //Set the selection bit for the display
 219:bsw\LabBoard/seven.c ****     SEVEN_SELECT_Write((uint8_t)sevenId);
 247              		.loc 1 219 0
 248 0008 FFF7FEFF 		bl	SEVEN_SELECT_Write
 249              	.LVL24:
 220:bsw\LabBoard/seven.c ****     
 221:bsw\LabBoard/seven.c ****     //Clear every bit
 222:bsw\LabBoard/seven.c ****     SEVEN_reg_Write(0);
 250              		.loc 1 222 0
 251 000c 0020     		movs	r0, #0
 252 000e FFF7FEFF 		bl	SEVEN_reg_Write
 253              	.LVL25:
 223:bsw\LabBoard/seven.c ****     
 224:bsw\LabBoard/seven.c ****     return RC_SUCCESS;
 225:bsw\LabBoard/seven.c **** }
 254              		.loc 1 225 0
 255 0012 0020     		movs	r0, #0
 256 0014 08BD     		pop	{r3, pc}
 257              	.L26:
 258 0016 00BF     		.align	2
 259              	.L25:
 260 0018 00000000 		.word	.LANCHOR1
 261              		.cfi_endproc
 262              	.LFE115:
 263              		.size	SEVEN_Clear, .-SEVEN_Clear
 264              		.section	.text.SEVEN_Init,"ax",%progbits
 265              		.align	2
 266              		.global	SEVEN_Init
 267              		.thumb
 268              		.thumb_func
 269              		.type	SEVEN_Init, %function
 270              	SEVEN_Init:
 271              	.LFB110:
  98:bsw\LabBoard/seven.c ****     
 272              		.loc 1 98 0
 273              		.cfi_startproc
 274              		@ args = 0, pretend = 0, frame = 0
 275              		@ frame_needed = 0, uses_anonymous_args = 0
 276 0000 08B5     		push	{r3, lr}
 277              		.cfi_def_cfa_offset 8
 278              		.cfi_offset 3, -8
 279              		.cfi_offset 14, -4
 100:bsw\LabBoard/seven.c ****     SEVEN_Clear(SEVEN_1);
 280              		.loc 1 100 0
 281 0002 0020     		movs	r0, #0
ARM GAS  C:\Users\vboxuser\AppData\Local\Temp\ccbuJY4H.s 			page 10


 282 0004 FFF7FEFF 		bl	SEVEN_Clear
 283              	.LVL26:
 101:bsw\LabBoard/seven.c ****     
 284              		.loc 1 101 0
 285 0008 0120     		movs	r0, #1
 286 000a FFF7FEFF 		bl	SEVEN_Clear
 287              	.LVL27:
 104:bsw\LabBoard/seven.c **** 
 288              		.loc 1 104 0
 289 000e 0020     		movs	r0, #0
 290 0010 08BD     		pop	{r3, pc}
 291              		.cfi_endproc
 292              	.LFE110:
 293              		.size	SEVEN_Init, .-SEVEN_Init
 294 0012 00BF     		.section	.text.SEVEN_Chasing,"ax",%progbits
 295              		.align	2
 296              		.global	SEVEN_Chasing
 297              		.thumb
 298              		.thumb_func
 299              		.type	SEVEN_Chasing, %function
 300              	SEVEN_Chasing:
 301              	.LFB116:
 226:bsw\LabBoard/seven.c **** 
 227:bsw\LabBoard/seven.c **** RC_t SEVEN_Chasing(SEVEN_id_t sevenId) {
 302              		.loc 1 227 0
 303              		.cfi_startproc
 304              		@ args = 0, pretend = 0, frame = 8
 305              		@ frame_needed = 0, uses_anonymous_args = 0
 306              	.LVL28:
 307 0000 30B5     		push	{r4, r5, lr}
 308              		.cfi_def_cfa_offset 12
 309              		.cfi_offset 4, -12
 310              		.cfi_offset 5, -8
 311              		.cfi_offset 14, -4
 312 0002 83B0     		sub	sp, sp, #12
 313              		.cfi_def_cfa_offset 24
 314 0004 0546     		mov	r5, r0
 228:bsw\LabBoard/seven.c ****     // Assuming you have a way to control individual segments,
 229:bsw\LabBoard/seven.c ****     // and SEVEN_Set(SEVEN_id_t, uint8_t) sets the individual segments.
 230:bsw\LabBoard/seven.c **** 
 231:bsw\LabBoard/seven.c ****     // Constants representing the segments in the order for the chasing effect
 232:bsw\LabBoard/seven.c ****     const uint8_t chasingSequence[] = {SEVEN__A, SEVEN__B, SEVEN__C, SEVEN__D, SEVEN__E, SEVEN__F};
 315              		.loc 1 232 0
 316 0006 104B     		ldr	r3, .L35
 317 0008 53F8140F 		ldr	r0, [r3, #20]!	@ unaligned
 318              	.LVL29:
 319 000c 0090     		str	r0, [sp]	@ unaligned
 320 000e 9B88     		ldrh	r3, [r3, #4]	@ unaligned
 321 0010 ADF80430 		strh	r3, [sp, #4]	@ unaligned
 322              	.LVL30:
 323              	.LBB2:
 233:bsw\LabBoard/seven.c **** 
 234:bsw\LabBoard/seven.c ****     // Duration for each segment to be lit
 235:bsw\LabBoard/seven.c ****     const int delayTime = 100; // in milliseconds
 236:bsw\LabBoard/seven.c **** 
 237:bsw\LabBoard/seven.c ****     for (uint8_t i = 0; i < sizeof(chasingSequence); ++i) {
 324              		.loc 1 237 0
ARM GAS  C:\Users\vboxuser\AppData\Local\Temp\ccbuJY4H.s 			page 11


 325 0014 0024     		movs	r4, #0
 326 0016 0EE0     		b	.L30
 327              	.LVL31:
 328              	.L32:
 238:bsw\LabBoard/seven.c ****         // Turn on the current segment
 239:bsw\LabBoard/seven.c ****         SEVEN_reg_Write(chasingSequence[i]);
 329              		.loc 1 239 0
 330 0018 02AB     		add	r3, sp, #8
 331 001a 2344     		add	r3, r3, r4
 332 001c 13F8080C 		ldrb	r0, [r3, #-8]	@ zero_extendqisi2
 333 0020 FFF7FEFF 		bl	SEVEN_reg_Write
 334              	.LVL32:
 240:bsw\LabBoard/seven.c **** 
 241:bsw\LabBoard/seven.c ****         // Wait for a bit
 242:bsw\LabBoard/seven.c ****         CyDelay(delayTime);
 335              		.loc 1 242 0
 336 0024 6420     		movs	r0, #100
 337 0026 FFF7FEFF 		bl	CyDelay
 338              	.LVL33:
 243:bsw\LabBoard/seven.c **** 
 244:bsw\LabBoard/seven.c ****         // Optionally, turn off the segment before moving to the next
 245:bsw\LabBoard/seven.c ****         if (SEVEN_Clear(sevenId) != RC_SUCCESS) {
 339              		.loc 1 245 0
 340 002a 2846     		mov	r0, r5
 341 002c FFF7FEFF 		bl	SEVEN_Clear
 342              	.LVL34:
 343 0030 28B9     		cbnz	r0, .L33
 237:bsw\LabBoard/seven.c ****         // Turn on the current segment
 344              		.loc 1 237 0 discriminator 2
 345 0032 0134     		adds	r4, r4, #1
 346              	.LVL35:
 347 0034 E4B2     		uxtb	r4, r4
 348              	.LVL36:
 349              	.L30:
 237:bsw\LabBoard/seven.c ****         // Turn on the current segment
 350              		.loc 1 237 0 is_stmt 0 discriminator 1
 351 0036 052C     		cmp	r4, #5
 352 0038 EED9     		bls	.L32
 353              	.LBE2:
 246:bsw\LabBoard/seven.c ****             return RC_ERROR; // Replace with appropriate error code
 247:bsw\LabBoard/seven.c ****         }
 248:bsw\LabBoard/seven.c ****     }
 249:bsw\LabBoard/seven.c **** 
 250:bsw\LabBoard/seven.c ****     return RC_SUCCESS;
 354              		.loc 1 250 0 is_stmt 1
 355 003a 0020     		movs	r0, #0
 356              	.LBB3:
 357 003c 01E0     		b	.L31
 358              	.L33:
 246:bsw\LabBoard/seven.c ****             return RC_ERROR; // Replace with appropriate error code
 359              		.loc 1 246 0
 360 003e 4FF0FF30 		mov	r0, #-1
 361              	.L31:
 362              	.LBE3:
 251:bsw\LabBoard/seven.c **** }...
 363              		.loc 1 251 0
 364 0042 03B0     		add	sp, sp, #12
ARM GAS  C:\Users\vboxuser\AppData\Local\Temp\ccbuJY4H.s 			page 12


 365              		.cfi_def_cfa_offset 12
 366              		@ sp needed
 367 0044 30BD     		pop	{r4, r5, pc}
 368              	.LVL37:
 369              	.L36:
 370 0046 00BF     		.align	2
 371              	.L35:
 372 0048 00000000 		.word	.LANCHOR0
 373              		.cfi_endproc
 374              	.LFE116:
 375              		.size	SEVEN_Chasing, .-SEVEN_Chasing
 376              		.section	.rodata
 377              		.align	2
 378              		.set	.LANCHOR0,. + 0
 379              		.type	SEVEN__BitPattern, %object
 380              		.size	SEVEN__BitPattern, 17
 381              	SEVEN__BitPattern:
 382 0000 FC       		.byte	-4
 383 0001 60       		.byte	96
 384 0002 DA       		.byte	-38
 385 0003 F2       		.byte	-14
 386 0004 66       		.byte	102
 387 0005 B6       		.byte	-74
 388 0006 BE       		.byte	-66
 389 0007 E0       		.byte	-32
 390 0008 FE       		.byte	-2
 391 0009 F6       		.byte	-10
 392 000a EE       		.byte	-18
 393 000b 3E       		.byte	62
 394 000c 9C       		.byte	-100
 395 000d 7A       		.byte	122
 396 000e 9E       		.byte	-98
 397 000f 8E       		.byte	-114
 398 0010 01       		.byte	1
 399 0011 000000   		.space	3
 400              	.LC0:
 401 0014 80       		.byte	-128
 402 0015 40       		.byte	64
 403 0016 20       		.byte	32
 404 0017 10       		.byte	16
 405 0018 08       		.byte	8
 406 0019 04       		.byte	4
 407              		.data
 408              		.align	2
 409              		.set	.LANCHOR1,. + 0
 410              		.type	SEVEN__latch_value, %object
 411              		.size	SEVEN__latch_value, 2
 412              	SEVEN__latch_value:
 413 0000 FF       		.byte	-1
 414 0001 FF       		.byte	-1
 415              		.bss
 416              		.align	2
 417              		.set	.LANCHOR2,. + 0
 418              		.type	SEVEN__latch_pattern, %object
 419              		.size	SEVEN__latch_pattern, 2
 420              	SEVEN__latch_pattern:
 421 0000 0000     		.space	2
ARM GAS  C:\Users\vboxuser\AppData\Local\Temp\ccbuJY4H.s 			page 13


 422              		.text
 423              	.Letext0:
 424              		.file 2 "c:\\program files (x86)\\cypress\\psoc creator\\4.4\\psoc creator\\import\\gnu\\arm\\5.4.
 425              		.file 3 "c:\\program files (x86)\\cypress\\psoc creator\\4.4\\psoc creator\\import\\gnu\\arm\\5.4.
 426              		.file 4 "Generated_Source\\PSoC5/ErikaOS_1_common_ee_types.inc"
 427              		.file 5 "Generated_Source\\PSoC5/ErikaOS_1_cortex_mx_ee_cpu.inc"
 428              		.file 6 ".\\bsw/global.h"
 429              		.file 7 "bsw\\LabBoard\\seven.h"
 430              		.file 8 "Generated_Source\\PSoC5/ErikaOS_1_ee_oo_intfunc.inc"
 431              		.file 9 "Generated_Source\\PSoC5/ErikaOS_1_cortex_mx_ee_context.inc"
 432              		.file 10 "Generated_Source\\PSoC5/ErikaOS_1_common_ee_primitives.inc"
 433              		.file 11 "Generated_Source\\PSoC5/core_cm3.h"
 434              		.file 12 "Generated_Source\\PSoC5/SEVEN_SELECT.h"
 435              		.file 13 "Generated_Source\\PSoC5/SEVEN_reg.h"
 436              		.file 14 "Generated_Source\\PSoC5/CyLib.h"